******************************************************************************
                  TI ARM Linker PC v18.12.3                    
******************************************************************************
>> Linked Sun Dec  1 16:23:14 2019

OUTPUT FILE NAME:   <mqtt_client_CC3220SF_LAUNCHXL_freertos_ccs_syscfg.out>
ENTRY POINT SYMBOL: "resetISR"  address: 01018445


MEMORY CONFIGURATION

         name            origin    length      used     unused   attr    fill
----------------------  --------  ---------  --------  --------  ----  --------
  FLASH_HDR             01000000   000007ff  00000000  000007ff  R  X
  FLASH                 01000800   000ff800  0001900e  000e67f2  R  X
  SRAM                  20000000   00040000  00022e11  0001d1ef  RW X


SEGMENT ALLOCATION MAP

run origin  load origin   length   init length attrs members
----------  ----------- ---------- ----------- ----- -------
01000800    01000800    00019010   00019010    r-x
  01000800    01000800    00000040   00000040    r-- .resetVecs
  01000840    01000840    00018278   00018278    r-x .text
  01018ab8    01018ab8    00000b8e   00000b8e    r-- .const
  01019648    01019648    000001c8   000001c8    r-- .cinit
20000400    20000400    00022708   00000000    rw-
  20000400    20000400    00021a35   00000000    rw- .bss
  20021e38    20021e38    00000cd0   00000000    rw- .data
2003fc00    2003fc00    00000400   00000000    rw-
  2003fc00    2003fc00    00000400   00000000    rw- .stack


SECTION ALLOCATION MAP

 output                                  attributes/
section   page    origin      length       input sections
--------  ----  ----------  ----------   ----------------
.resetVecs 
*          0    01000800    00000040     
                  01000800    00000040     freertos_builds_CC3220SF_LAUNCHXL_release_ccs.lib : startup_cc32xx_ccs.obj (.resetVecs:retain)

.text      0    01000840    00018278     
                  01000840    00000ab8     rtsv7M4_T_le_eabi.lib : _scanfi.c.obj (.text:__TI_scanfi)
                  010012f8    00000a4e                           : _printfi.c.obj (.text:__TI_printfi)
                  01001d46    00000002     Board.obj (.text:Board_initHook)
                  01001d48    00000964     sensors_state.obj (.text:sensor_fsm)
                  010026ac    000008cc     simplelink.a : driver.obj (.text:_SlDrvMsgRead)
                  01002f78    000004bc                  : sl_socket.obj (.text:_SlSocketHandleAsync_Select)
                  01003434    00000454     rtsv7M4_T_le_eabi.lib : strtod.c.obj (.text:strtod)
                  01003888    0000042c     mqtt_client_app.obj (.text:MqttClient)
                  01003cb4    0000042c     driverlib.a : prcm.obj (.text:PRCMCC3200MCUInit)
                  010040e0    00000384     simplelink.a : driver.obj (.text:_SlDrvMsgWrite)
                  01004464    0000031c     client_cbs.obj (.text:jsmn_parse)
                  01004780    000002e0     simplelink.a : driver.obj (.text:_SlDrvWaitForPoolObj)
                  01004a60    000002d8                  : driver.obj (.text:_SlDrvRxHdrRead)
                  01004d38    000002b4                  : sl_socket.obj (.text:sl_Select)
                  01004fec    00000294                  : driver.obj (.text:_SlDrvReleasePoolObj)
                  01005280    00000288     client_cbs.obj (.text:MqttClientCallback)
                  01005508    0000027c     simplelink.a : wlan.obj (.text:sl_WlanConnect)
                  01005784    00000278     drivers_cc32xx.aem4 : UARTCC32XX.oem4 (.text:UARTCC32XX_open)
                  010059fc    00000274     simplelink.a : driver.obj (.text:_SlDrvDataReadOp)
                  01005c70    00000268     rtsv7M4_T_le_eabi.lib : _printfi.c.obj (.text:_pconv_a)
                  01005ed8    00000224     simplelink.a : driver.obj (.text:_SlDrvDriverCBInit)
                  010060fc    00000218                  : driver.obj (.text:_SlDrvDataWriteOp)
                  01006314    000001f4                  : driver.obj (.text:_SlDrvMsgReadCmdCtx)
                  01006508    000001f2                  : netapp.obj (.text:_SlNetAppEventHandler)
                  010066fa    00000002     drivers_cc32xx.aem4 : I2CCC32XX.oem4 (.text:I2CCC32XX_init)
                  010066fc    000001dc     rtsv7M4_T_le_eabi.lib : strtoll.c.obj (.text:strtoll)
                  010068d8    000001d8     drivers_cc32xx.aem4 : GPIOCC32XX.oem4 (.text:GPIO_setConfig)
                  01006ab0    000001d4     freertos_builds_CC3220SF_LAUNCHXL_release_ccs.lib : queue.obj (.text:xQueueSemaphoreTake)
                  01006c84    000001d0     drivers_cc32xx.aem4 : SPICC32XXDMA.oem4 (.text:SPICC32XXDMA_transfer)
                  01006e54    000001cc     rtsv7M4_T_le_eabi.lib : _printfi.c.obj (.text:_pconv_g)
                  01007020    000001c8     simplelink.a : device.obj (.text:sl_Stop)
                  010071e8    000001b8     drivers_cc32xx.aem4 : SPICC32XXDMA.oem4 (.text:configDMA)
                  010073a0    000001b8     freertos_builds_CC3220SF_LAUNCHXL_release_ccs.lib : queue.obj (.text:xQueueGenericSend)
                  01007558    000001b6     rtsv7M4_T_le_eabi.lib : fd_add_t2.asm.obj (.text)
                  0100770e    00000002     driverlib.a : interrupt.obj (.text:IntDefaultHandler)
                  01007710    000001b4     simplelink.a : driver.obj (.text:_SlDrvReleaseAllActivePendingPoolObj)
                  010078c4    000001b4                  : sl_socket.obj (.text:sl_Accept)
                  01007a78    000001b0     freertos_builds_CC3220SF_LAUNCHXL_release_ccs.lib : PowerCC32XX_freertos.obj (.text:PowerCC32XX_sleepPolicy)
                  01007c28    00000198     slnetsock_release.a : slnetsock.oem4 (.text:SlNetSock_select)
                  01007dc0    0000018c     simplelink.a : sl_socket.obj (.text:_SlDrvRegisterForSelectAsync)
                  01007f4c    0000018c     client_cbs.obj (.text:jsmn_parse_string)
                  010080d8    00000184     simplelink.a : driver.obj (.text:_SlDrvFindAndSetActiveObj)
                  0100825c    00000184                  : sl_socket.obj (.text:sl_Connect)
                  010083e0    00000180     freertos_builds_CC3220SF_LAUNCHXL_release_ccs.lib : queue.obj (.text:xQueueReceive)
                  01008560    00000178     mqtt_client_app.obj (.text:MqttClient_start)
                  010086d8    00000178     freertos_builds_CC3220SF_LAUNCHXL_release_ccs.lib : heap_4.obj (.text:pvPortMalloc)
                  01008850    00000168     simplelink.a : netapp.obj (.text:sl_NetAppDnsGetHostByName)
                  010089b8    00000164     freertos_builds_CC3220SF_LAUNCHXL_release_ccs.lib : timers.obj (.text:prvProcessReceivedCommands)
                  01008b1c    0000015c     rtsv7M4_T_le_eabi.lib : strtoull.c.obj (.text:strtoull)
                  01008c78    0000015a     mqtt_release.a : mqtt_net_func.oem4 (.text:createSocket)
                  01008dd2    00000002     freertos_builds_CC3220SF_LAUNCHXL_release_ccs.lib : PowerCC32XX_freertos.obj (.text:PowerCC32XX_initPolicy)
                  01008dd4    00000158     drivers_cc32xx.aem4 : SPICC32XXDMA.oem4 (.text:SPICC32XXDMA_open)
                  01008f2c    00000154     mqtt_release.a : mqttclient.oem4 (.text:MQTTClient_connect)
                  01009080    00000154     simplelink.a : sl_socket.obj (.text:sl_RecvFrom)
                  010091d4    00000148     drivers_cc32xx.aem4 : PowerCC32XX.oem4 (.text:parkPins)
                  0100931c    00000148     simplelink.a : sl_socket.obj (.text:sl_StartTLS)
                  01009464    00000140                  : driver.obj (.text:_SlDrvMsgReadSpawnCtx)
                  010095a4    0000013c                  : driver.obj (.text:_SlDrvDriverCBDeinit)
                  010096e0    0000013c                  : sl_socket.obj (.text:_SlDrvGetNextTimeoutValue)
                  0100981c    0000013c     rtsv7M4_T_le_eabi.lib : _printfi.c.obj (.text:_pconv_e)
                  01009958    0000013c     freertos_builds_CC3220SF_LAUNCHXL_release_ccs.lib : tasks.obj (.text:xTaskIncrementTick)
                  01009a94    00000138                                                       : pthread.obj (.text:pthread_create)
                  01009bcc    00000136     rtsv7M4_T_le_eabi.lib : fd_div_t2.asm.obj (.text)
                  01009d02    00000002     drivers_cc32xx.aem4 : TimerCC32XX.oem4 (.text:TimerCC32XX_init)
                  01009d04    00000134     network_if.obj (.text:Network_IF_ConnectAP)
                  01009e38    00000134     simplelink.a : sl_socket.obj (.text:_SlSocketHandleAsync_StartTLS)
                  01009f6c    00000130     rtsv7M4_T_le_eabi.lib : strtol.c.obj (.text:strtol)
                  0100a09c    0000012a     freertos_builds_CC3220SF_LAUNCHXL_release_ccs.lib : tasks.obj (.text:prvInitialiseNewTask)
                  0100a1c6    00000002     drivers_cc32xx.aem4 : UARTCC32XX.oem4 (.text:UARTCC32XX_init)
                  0100a1c8    00000128                         : TimerCC32XX.oem4 (.text:TimerCC32XX_open)
                  0100a2f0    00000128     simplelink.a : driver.obj (.text:_SlDrvClassifyRxMsg)
                  0100a418    00000124                  : fs.obj (.text:sl_FsOpen)
                  0100a53c    00000122     statisticsTask.obj (.text:statisticsTask)
                  0100a65e    00000120     drivers_cc32xx.aem4 : I2CCC32XX.oem4 (.text:I2CCC32XX_hwiFxn)
                  0100a77e    00000002     freertos_builds_CC3220SF_LAUNCHXL_release_ccs.lib : startup_cc32xx_ccs.obj (.text:busFaultHandler)
                  0100a780    00000120     drivers_cc32xx.aem4 : UARTCC32XX.oem4 (.text:UARTCC32XX_close)
                  0100a8a0    00000120     simplelink.a : driver.obj (.text:_SlDrvAsyncEventGenericHandler)
                  0100a9c0    00000120     rtsv7M4_T_le_eabi.lib : _printfi.c.obj (.text:fcvt)
                  0100aae0    0000011c     drivers_cc32xx.aem4 : PowerCC32XX.oem4 (.text:Power_sleep)
                  0100abfc    0000011c     simplelink.a : device.obj (.text:sl_Start)
                  0100ad18    0000011c     freertos_builds_CC3220SF_LAUNCHXL_release_ccs.lib : tasks.obj (.text:xTaskResumeAll)
                  0100ae34    00000118     simplelink.a : netapp.obj (.text:_SlNetAppHandleAsync_DnsGetHostByService)
                  0100af4c    00000114     freertos_builds_CC3220SF_LAUNCHXL_release_ccs.lib : tasks.obj (.text:vTaskPriorityDisinheritAfterTimeout)
                  0100b060    00000112     mqtt_release.a : mqtt_common.oem4 (.text:MQTT_PacketRecv)
                  0100b172    00000002     freertos_builds_CC3220SF_LAUNCHXL_release_ccs.lib : startup_cc32xx_ccs.obj (.text:defaultHandler)
                  0100b174    00000110     rtsv7M4_T_le_eabi.lib : strtoul.c.obj (.text:strtoul)
                  0100b284    0000010c     main_freertos.obj (.text:main)
                  0100b390    00000108     slnetsock_release.a : slnetutils.oem4 (.text:SlNetUtil_str2BinIpV6)
                  0100b498    00000108     simplelink.a : driver.obj (.text:_SlSpawnMsgListInsert)
                  0100b5a0    00000104                  : device.obj (.text:_SlDeviceEventHandler)
                  0100b6a4    00000104                  : driver.obj (.text:_SlDrvCmdOp)
                  0100b7a8    00000104     freertos_builds_CC3220SF_LAUNCHXL_release_ccs.lib : queue.obj (.text:xQueueGenericSendFromISR)
                  0100b8ac    00000100     simplelink.a : driver.obj (.text:_SlDrvObjGlobalLockWaitForever)
                  0100b9ac    00000100                  : sl_socket.obj (.text:sl_Close)
                  0100baac    00000100                  : fs.obj (.text:sl_FsWrite)
                  0100bbac    000000fc     drivers_cc32xx.aem4 : I2CCC32XX.oem4 (.text:I2CCC32XX_open)
                  0100bca8    000000fc     rtsv7M4_T_le_eabi.lib : fd_mul_t2.asm.obj (.text)
                  0100bda4    000000fc     freertos_builds_CC3220SF_LAUNCHXL_release_ccs.lib : tasks.obj (.text:vTaskSuspend)
                  0100bea0    000000f8     slnetifwifi.a : slnetifwifi.obj (.text:SlNetIfWifi_loadSecObj)
                  0100bf98    000000f8     freertos_builds_CC3220SF_LAUNCHXL_release_ccs.lib : tasks.obj (.text:vTaskDelete)
                  0100c090    000000f6     mqtt_release.a : mqtt_net_func.oem4 (.text:MQTTNet_commOpen)
                  0100c186    00000002     freertos_builds_CC3220SF_LAUNCHXL_release_ccs.lib : startup_cc32xx_ccs.obj (.text:faultISR)
                  0100c188    000000f4     simplelink.a : sl_socket.obj (.text:sl_SendTo)
                  0100c27c    000000f2     drivers_cc32xx.aem4 : SPICC32XXDMA.oem4 (.text:SPICC32XXDMA_transferCancel)
                  0100c36e    000000f2                         : UARTCC32XX.oem4 (.text:UARTCC32XX_control)
                  0100c460    000000f0     mqtt_client_app.obj (.text:mainThread)
                  0100c550    000000f0     freertos_builds_CC3220SF_LAUNCHXL_release_ccs.lib : queue.obj (.text:xQueueGiveFromISR)
                  0100c640    000000e8     slnetsock_release.a : slnetif.oem4 (.text:SlNetIf_add)
                  0100c728    000000e8     ultraSonar_main.obj (.text:sonarRead)
                  0100c810    000000e8     freertos_builds_CC3220SF_LAUNCHXL_release_ccs.lib : tasks.obj (.text:xTaskPriorityInherit)
                  0100c8f8    000000e6     mqtt_release.a : client_core.oem4 (.text:utf8ArraySend)
                  0100c9de    00000002     freertos_builds_CC3220SF_LAUNCHXL_release_ccs.lib : startup_cc32xx_ccs.obj (.text:nmiISR)
                  0100c9e0    000000e0     mqtt_release.a : mqttclient.oem4 (.text:MqttClientCtxCreate)
                  0100cac0    000000e0     freertos_builds_CC3220SF_LAUNCHXL_release_ccs.lib : tasks.obj (.text:xTaskPriorityDisinherit)
                  0100cba0    000000de     mqtt_release.a : client_core.oem4 (.text:connectMsgSend)
                  0100cc7e    00000002     rtsv7M4_T_le_eabi.lib : div0.asm.obj (.text)
                  0100cc80    000000dc     freertos_builds_CC3220SF_LAUNCHXL_release_ccs.lib : tasks.obj (.text:vTaskSwitchContext)
                  0100cd5c    000000d8     drivers_cc32xx.aem4 : SPICC32XXDMA.oem4 (.text:SPICC32XXDMA_close)
                  0100ce34    000000d8     simplelink.a : device.obj (.text:_SlDeviceHandleAsync_InitComplete)
                  0100cf0c    000000d8                  : driver.obj (.text:_SlDrvWaitForInternalAsyncEvent)
                  0100cfe4    000000d8                  : netapp.obj (.text:_SlNetAppHandleAsync_NetAppReceive)
                  0100d0bc    000000d8     freertos_builds_CC3220SF_LAUNCHXL_release_ccs.lib : queue.obj (.text:xQueueReceiveFromISR)
                  0100d194    000000d0     mqtt_client_app.obj (.text:SetClientIdNamefromMacAddress)
                  0100d264    000000d0     simplelink.a : driver.obj (.text:_SlDrvRemoveFromList)
                  0100d334    000000d0     rtsv7M4_T_le_eabi.lib : s_scalbn.c.obj (.text:scalbn)
                  0100d404    000000cc     mqtt_release.a : mqttclient.oem4 (.text:processNotifyAckCB)
                  0100d4d0    000000ca     drivers_cc32xx.aem4 : UARTCC32XX.oem4 (.text:UARTCC32XX_write)
                  0100d59a    00000002     main_freertos.obj (.text:vApplicationMallocFailedHook)
                  0100d59c    000000c8     mqtt_client_app.obj (.text:Mqtt_IF_Connect)
                  0100d664    000000c8     client_cbs.obj (.text:jsmn_parse_primitive)
                  0100d72c    000000c8     drivers_cc32xx.aem4 : SPICC32XXDMA.oem4 (.text:spiHwiFxn)
                  0100d7f4    000000c4                         : GPIOCC32XX.oem4 (.text:GPIO_init)
                  0100d8b8    000000c4     freertos_builds_CC3220SF_LAUNCHXL_release_ccs.lib : tasks.obj (.text:prvAddNewTaskToReadyList)
                  0100d97c    000000c0     mqtt_release.a : mqttclient.oem4 (.text:MqttClientSub)
                  0100da3c    000000c0     simplelink.a : cc_pal.obj (.text:NwpPowerOff)
                  0100dafc    000000c0     drivers_cc32xx.aem4 : PowerCC32XX.oem4 (.text:restoreParkedPins)
                  0100dbbc    000000c0     simplelink.a : netcfg.obj (.text:sl_NetCfgGet)
                  0100dc7c    000000c0     freertos_builds_CC3220SF_LAUNCHXL_release_ccs.lib : port.obj (.text:xPortStartScheduler)
                  0100dd3c    000000be                                                       : queue.obj (.text:prvCopyDataToQueue)
                  0100ddfa    00000002     --HOLE-- [fill = 0]
                  0100ddfc    000000bc     simplelink.a : netapp.obj (.text:_SlNetAppSendResponse)
                  0100deb8    000000bc     mqtt_release.a : client_core.oem4 (.text:clCtxConnStateTryLocked)
                  0100df74    000000bc     freertos_builds_CC3220SF_LAUNCHXL_release_ccs.lib : heap_4.obj (.text:prvHeapInit)
                  0100e030    000000bc                                                       : timers.obj (.text:prvSwitchTimerLists)
                  0100e0ec    000000bc     simplelink.a : sl_socket.obj (.text:sl_Send)
                  0100e1a8    000000ba     drivers_cc32xx.aem4 : UARTCC32XX.oem4 (.text:UARTCC32XX_readPolling)
                  0100e262    00000002     --HOLE-- [fill = 0]
                  0100e264    000000ba     freertos_builds_CC3220SF_LAUNCHXL_release_ccs.lib : portasm.obj (.text)
                  0100e31e    00000002     --HOLE-- [fill = 0]
                  0100e320    000000b8     simplelink.a : netapp.obj (.text:_SlNetAppHandleAsync_DnsGetHostByName)
                  0100e3d8    000000b8                  : netapp.obj (.text:_SlNetAppHandleAsync_PingResponse)
                  0100e490    000000b8     drivers_cc32xx.aem4 : UARTCC32XX.oem4 (.text:initHw)
                  0100e548    000000b8     simplelink.a : wlan.obj (.text:sl_WlanGet)
                  0100e600    000000b8     freertos_builds_CC3220SF_LAUNCHXL_release_ccs.lib : queue.obj (.text:xQueueGenericReset)
                  0100e6b8    000000b6     pixy_main.obj (.text:pixyRead)
                  0100e76e    000000b6     drivers_cc32xx.aem4 : UARTCC32XX.oem4 (.text:readTaskCallback)
                  0100e824    000000b4     mqtt_release.a : mqttclient.oem4 (.text:MqttClient_send)
                  0100e8d8    000000b4     simplelink.a : driver.obj (.text:_SlDrvHandleFatalError)
                  0100e98c    000000b4                  : netutil.obj (.text:_SlNetUtilHandleAsync_Cmd)
                  0100ea40    000000b4     freertos_builds_CC3220SF_LAUNCHXL_release_ccs.lib : clock.obj (.text:_clock_abstime2ticks)
                  0100eaf4    000000b4     simplelink.a : sl_socket.obj (.text:sl_GetSockOpt)
                  0100eba8    000000b1     rtsv7M4_T_le_eabi.lib : _printfi.c.obj (.text:_ltostr)
                  0100ec59    00000003     --HOLE-- [fill = 0]
                  0100ec5c    000000b0     slnetifwifi.a : slnetifwifi.obj (.text:SlNetIfWifi_getSockOpt)
                  0100ed0c    000000b0     freertos_builds_CC3220SF_LAUNCHXL_release_ccs.lib : tasks.obj (.text:prvAddCurrentTaskToDelayedList)
                  0100edbc    000000b0                                                       : tasks.obj (.text:xTaskCheckForTimeOut)
                  0100ee6c    000000ae     slnetifwifi.a : slnetifwifi.obj (.text:matchModeByRole)
                  0100ef1a    000000ae     freertos_builds_CC3220SF_LAUNCHXL_release_ccs.lib : queue.obj (.text:prvUnlockQueue)
                  0100efc8    000000ae     drivers_cc32xx.aem4 : UARTCC32XX.oem4 (.text:readIsrTextBlocking)
                  0100f076    00000002     --HOLE-- [fill = 0]
                  0100f078    000000ac     simplelink.a : sl_socket.obj (.text:_SlSocketHandleAsync_Close)
                  0100f124    000000ac                  : sl_socket.obj (.text:_SlSocketHandleAsync_Connect)
                  0100f1d0    000000ac     freertos_builds_CC3220SF_LAUNCHXL_release_ccs.lib : clock.obj (.text:clock_gettime)
                  0100f27c    000000a8     driverlib.a : interrupt.obj (.text:IntDisable)
                  0100f324    000000a8                 : interrupt.obj (.text:IntEnable)
                  0100f3cc    000000a8                 : prcm.obj (.text:PRCMPeripheralClockGet)
                  0100f474    000000a8     drivers_cc32xx.aem4 : PowerCC32XX.oem4 (.text:PowerCC32XX_configureWakeup)
                  0100f51c    000000a8     freertos_builds_CC3220SF_LAUNCHXL_release_ccs.lib : heap_4.obj (.text:prvInsertBlockIntoFreeList)
                  0100f5c4    000000a8     drivers_cc32xx.aem4 : UARTCC32XX.oem4 (.text:readTaskBlocking)
                  0100f66c    000000a8     simplelink.a : fs.obj (.text:sl_FsClose)
                  0100f714    000000a8     freertos_builds_CC3220SF_LAUNCHXL_release_ccs.lib : tasks.obj (.text:xTaskRemoveFromEventList)
                  0100f7bc    000000a6     simplelink.a : driver.obj (.text:_SlDrvIsTimeoutExpired)
                  0100f862    00000002     --HOLE-- [fill = 0]
                  0100f864    000000a4     mqtt_release.a : mqttclient.oem4 (.text:MQTTClient_create)
                  0100f908    000000a4                    : mqttclient.oem4 (.text:MqttClientConfig)
                  0100f9ac    000000a4     simplelink.a : sl_socket.obj (.text:sl_Bind)
                  0100fa50    000000a2     drivers_cc32xx.aem4 : UARTCC32XX.oem4 (.text:readIsrTextCallback)
                  0100faf2    000000a2                         : UARTCC32XX.oem4 (.text:writeData)
                  0100fb94    000000a0     freertos_builds_CC3220SF_LAUNCHXL_release_ccs.lib : ClockP_freertos.obj (.text:ClockP_create)
                  0100fc34    000000a0     simplelink.a : fs.obj (.text:FsGetCreateFsMode)
                  0100fcd4    000000a0     network_if.obj (.text:SimpleLinkWlanEventHandler)
                  0100fd74    000000a0     simplelink.a : sl_socket.obj (.text:_SlDrvUnRegisterForSelectAsync)
                  0100fe14    000000a0                  : driver.obj (.text:_SlSpawnMsgListProcess)
                  0100feb4    0000009e                  : cc_pal.obj (.text:spi_Read)
                  0100ff52    0000009e                  : cc_pal.obj (.text:spi_Write)
                  0100fff0    0000009c     mqtt_release.a : client_core.oem4 (.text:MQTTClientCore_initLib)
                  0101008c    0000009c                    : client_core.oem4 (.text:MQTTClientCore_sendPubMsg)
                  01010128    0000009c                    : client_core.oem4 (.text:_msgDispatch)
                  010101c4    0000009c     rtsv7M4_T_le_eabi.lib : memcpy_t2.asm.obj (.text)
                  01010260    0000009c     freertos_builds_CC3220SF_LAUNCHXL_release_ccs.lib : heap_4.obj (.text:vPortFree)
                  010102fc    0000009a     mqtt_release.a : client_core.oem4 (.text:procPubMsgRx)
                  01010396    00000002     --HOLE-- [fill = 0]
                  01010398    00000098     drivers_cc32xx.aem4 : GPIOCC32XX.oem4 (.text:powerNotifyFxn)
                  01010430    00000096     mqtt_release.a : mqtt_net_func.oem4 (.text:MQTTNet_tcpSelect)
                  010104c6    00000096     rtsv7M4_T_le_eabi.lib : ull_div_t2.asm.obj (.text)
                  0101055c    00000094     drivers_cc32xx.aem4 : ADCCC32XX.oem4 (.text:ADCCC32XX_open)
                  010105f0    00000094     network_if.obj (.text:Network_IF_InitDriver)
                  01010684    00000094     simplelink.a : cc_pal.obj (.text:Semaphore_pend_handle)
                  01010718    00000094     drivers_cc32xx.aem4 : SPICC32XXDMA.oem4 (.text:initHw)
                  010107ac    00000094     freertos_builds_CC3220SF_LAUNCHXL_release_ccs.lib : tasks.obj (.text:vTaskStartScheduler)
                  01010840    00000092     slnetsock_release.a : slnetsock.oem4 (.text:SlNetSock_create)
                  010108d2    00000090     drivers_cc32xx.aem4 : I2CCC32XX.oem4 (.text:I2CCC32XX_transfer)
                  01010962    00000002     --HOLE-- [fill = 0]
                  01010964    00000090     mqtt_client_app.obj (.text:Mqtt_start)
                  010109f4    00000090     slnetsock_release.a : slnetsock.oem4 (.text:SlNetSock_getVirtualSdConf)
                  01010a84    00000090     simplelink.a : device.obj (.text:_SlDeviceHandleAsync_Stop)
                  01010b14    00000090                  : sl_socket.obj (.text:_SlSocketHandleAsync_Accept)
                  01010ba4    00000090     mqtt_release.a : mqttclient.oem4 (.text:processPublishRxCB)
                  01010c34    00000090     drivers_cc32xx.aem4 : PowerCC32XX.oem4 (.text:restoreNVICRegs)
                  01010cc4    0000008c     mqtt_release.a : client_core.oem4 (.text:MQTTClientCore_createCtx)
                  01010d50    0000008c     slnetsock_release.a : slnetsock.oem4 (.text:SlNetSock_accept)
                  01010ddc    0000008c     simplelink.a : driver.obj (.text:_SlDrvDriverIsApiAllowed)
                  01010e68    0000008c     freertos_builds_CC3220SF_LAUNCHXL_release_ccs.lib : clock.obj (.text:_clock_gettimeMono)
                  01010ef4    0000008c     simplelink.a : sl_socket.obj (.text:sl_Recv)
                  01010f80    00000088     driverlib.a : pin.obj (.text:PinConfigSet)
                  01011008    00000088     simplelink.a : driver.obj (.text:_SlDrvProtectAsyncRespSetting)
                  01011090    00000088     mqtt_release.a : client_core.oem4 (.text:procConnackRx)
                  01011118    00000088     freertos_builds_CC3220SF_LAUNCHXL_release_ccs.lib : timers.obj (.text:prvProcessTimerOrBlockTask)
                  010111a0    00000088     simplelink.a : eventreg.obj (.text:sl_UnregisterLibsEventHandler)
                  01011228    00000088     mqtt_release.a : client_core.oem4 (.text:wrConnectPayload)
                  010112b0    00000086     drivers_cc32xx.aem4 : I2CCC32XX.oem4 (.text:I2CCC32XX_primeTransfer)
                  01011336    00000086     rtsv7M4_T_le_eabi.lib : fd_cmp_t2.asm.obj (.text:__aeabi_cdcmple)
                  010113bc    00000086                           : fd_cmp_t2.asm.obj (.text:__aeabi_cdrcmple)
                  01011442    00000002     --HOLE-- [fill = 0]
                  01011444    00000084     drivers_cc32xx.aem4 : I2CCC32XX.oem4 (.text:I2CCC32XX_close)
                  010114c8    00000084                         : PowerCC32XX.oem4 (.text:Power_init)
                  0101154c    00000084     slnetifwifi.a : slnetifwifi.obj (.text:SlNetIfWifi_sockstartSec)
                  010115d0    00000084     slnetsock_release.a : slnetutils.oem4 (.text:SlNetUtil_getHostByName)
                  01011654    00000084     mqtt_release.a : client_core.oem4 (.text:mqpSetupProcCtxDataRecv)
                  010116d8    00000084     drivers_cc32xx.aem4 : PowerCC32XX.oem4 (.text:saveNVICRegs)
                  0101175c    00000084     simplelink.a : sl_socket.obj (.text:sl_SetSockOpt)
                  010117e0    00000084     freertos_builds_CC3220SF_LAUNCHXL_release_ccs.lib : timers.obj (.text:xTimerGenericCommand)
                  01011864    00000080     drivers_cc32xx.aem4 : PowerCC32XX.oem4 (.text:Power_setDependency)
                  010118e4    00000080     mqtt_release.a : client_core.oem4 (.text:clCtxPartSend)
                  01011964    00000080     freertos_builds_CC3220SF_LAUNCHXL_release_ccs.lib : timers.obj (.text:prvProcessExpiredTimer)
                  010119e4    0000007e     drivers_cc32xx.aem4 : I2CCC32XX.oem4 (.text:I2CCC32XX_cancel)
                  01011a62    0000007e     process_main.obj (.text:processObject)
                  01011ae0    0000007c     drivers_cc32xx.aem4 : UDMACC32XX.oem4 (.text:UDMACC32XX_open)
                  01011b5c    0000007c     mqtt_release.a : client_core.oem4 (.text:procCtxDataRecv)
                  01011bd8    0000007c     drivers_cc32xx.aem4 : UARTCC32XX.oem4 (.text:readIsrBinaryBlocking)
                  01011c54    0000007a     freertos_builds_CC3220SF_LAUNCHXL_release_ccs.lib : pthread.obj (.text:removeThreadKeys)
                  01011cce    0000007a     rtsv7M4_T_le_eabi.lib : memset_t2.asm.obj (.text)
                  01011d48    0000007a     freertos_builds_CC3220SF_LAUNCHXL_release_ccs.lib : tasks.obj (.text:xTaskCreate)
                  01011dc2    00000002     --HOLE-- [fill = 0]
                  01011dc4    00000078     drivers_cc32xx.aem4 : GPIOCC32XX.oem4 (.text:GPIO_hwiIntFxn)
                  01011e3c    00000078     mqtt_release.a : mqtt_net_func.oem4 (.text:MQTTNet_recvFrom)
                  01011eb4    00000078     drivers_cc32xx.aem4 : TimerCC32XX.oem4 (.text:TimerCC32XX_start)
                  01011f2c    00000078     freertos_builds_CC3220SF_LAUNCHXL_release_ccs.lib : timers.obj (.text:prvInsertTimerInActiveList)
                  01011fa4    00000078     drivers_cc32xx.aem4 : UARTCC32XX.oem4 (.text:readIsrBinaryCallback)
                  0101201c    00000078     simplelink.a : sl_socket.obj (.text:sl_Socket)
                  01012094    00000074     drivers_cc32xx.aem4 : ADCCC32XX.oem4 (.text:ADCCC32XX_close)
                  01012108    00000074     mqtt_release.a : mqtt_net_func.oem4 (.text:MQTTNet_tcpAccept)
                  0101217c    00000074     slnetsock_release.a : slnetsock.oem4 (.text:SlNetSock_AllocVirtualSocket)
                  010121f0    00000074     drivers_cc32xx.aem4 : UARTCC32XX.oem4 (.text:UARTCC32XX_hwiIntFxn)
                  01012264    00000074     mqtt_release.a : client_core.oem4 (.text:groupCtxsRxPrep)
                  010122d8    00000074     freertos_builds_CC3220SF_LAUNCHXL_release_ccs.lib : tasks.obj (.text:prvInitialiseTaskLists)
                  0101234c    00000074                                                       : pthread_mutex.obj (.text:pthread_mutex_init)
                  010123c0    00000074                                                       : port.obj (.text:vPortValidateInterruptPriority)
                  01012434    00000072     mqtt_release.a : mqtt_common.oem4 (.text:MQTT_packetProcPubRx)
                  010124a6    00000002     --HOLE-- [fill = 0]
                  010124a8    00000070     simplelink.a : driver.obj (.text:_SlDrvCmdSend_noLock)
                  01012518    00000070     ultraSonar_main.obj (.text:insertionSort)
                  01012588    00000070     freertos_builds_CC3220SF_LAUNCHXL_release_ccs.lib : ClockP_freertos.obj (.text:setClockObjTimeout)
                  010125f8    0000006e     rtsv7M4_T_le_eabi.lib : _printfi.c.obj (.text:_mcpy)
                  01012666    0000006e                           : fd_tos_t2.asm.obj (.text)
                  010126d4    0000006c     mqtt_release.a : mqttclient.oem4 (.text:MQTTClient_run)
                  01012740    0000006c     slnetsock_release.a : slnetutils.oem4 (.text:SlNetUtil_str2BinIpV4)
                  010127ac    0000006c     simplelink.a : device.obj (.text:_SlDeviceHandleResetRequestInternally)
                  01012818    0000006c                  : sl_socket.obj (.text:_SlDrvOpenCtrlSocket)
                  01012884    0000006c                  : netapp.obj (.text:_SlNetAppSendTokenValue)
                  010128f0    0000006a     mqtt_release.a : mqtt_net_func.oem4 (.text:MQTTNet_sendTo)
                  0101295a    0000006a     freertos_builds_CC3220SF_LAUNCHXL_release_ccs.lib : queue.obj (.text:xQueueGenericCreate)
                  010129c4    00000068     mqtt_release.a : mqtt_common.oem4 (.text:MQTT_qos2PubCqUnlog)
                  01012a2c    00000068     simplelink.a : driver.obj (.text:_SlSpawnMsgListGetCount)
                  01012a94    00000068     rtsv7M4_T_le_eabi.lib : sscanf.c.obj (.text:_chkmbc)
                  01012afc    00000068                           : copy_decompress_lzss.c.obj (.text:decompress:lzss:__TI_decompress_lzss)
                  01012b64    00000068     drivers_cc32xx.aem4 : I2CCC32XX.oem4 (.text:initHw)
                  01012bcc    00000068     pixy_queue.obj (.text:recieveMsgFromPixyQ)
                  01012c34    00000068     simplelink.a : cc_pal.obj (.text:spi_Open)
                  01012c9c    00000066     drivers_cc32xx.aem4 : UARTCC32XX.oem4 (.text:UARTCC32XX_writeCancel)
                  01012d02    00000066     freertos_builds_CC3220SF_LAUNCHXL_release_ccs.lib : timers.obj (.text:prvInitialiseNewTimer)
                  01012d68    00000066                                                       : list.obj (.text:vListInsert)
                  01012dce    00000002     --HOLE-- [fill = 0]
                  01012dd0    00000064     drivers_cc32xx.aem4 : ADCCC32XX.oem4 (.text:ADCCC32XX_convert)
                  01012e34    00000064     freertos_builds_CC3220SF_LAUNCHXL_release_ccs.lib : ClockP_freertos.obj (.text:ClockP_stop)
                  01012e98    00000064     mqtt_release.a : mqtt_common.oem4 (.text:MQTT_packetPubAppendTopic)
                  01012efc    00000064     drivers_cc32xx.aem4 : PowerCC32XX.oem4 (.text:PowerCC32XX_setParkState)
                  01012f60    00000064     freertos_builds_CC3220SF_LAUNCHXL_release_ccs.lib : pthread_mutex.obj (.text:acquireMutex)
                  01012fc4    00000064     mqtt_release.a : client_core.oem4 (.text:clientReset)
                  01013028    00000064                    : client_core.oem4 (.text:doNetClose)
                  0101308c    00000064     freertos_builds_CC3220SF_LAUNCHXL_release_ccs.lib : tasks.obj (.text:prvGetExpectedIdleTime)
                  010130f0    00000062     drivers_cc32xx.aem4 : UARTCC32XX.oem4 (.text:UARTCC32XX_writePolling)
                  01013152    00000002     --HOLE-- [fill = 0]
                  01013154    00000060     freertos_builds_CC3220SF_LAUNCHXL_release_ccs.lib : HwiPCC32XX_freertos.obj (.text:HwiP_create)
                  010131b4    00000060     driverlib.a : prcm.obj (.text:PRCMSysResetCauseGet)
                  01013214    00000060     slnetsock_release.a : slnetsock.oem4 (.text:SlNetSock_recvFrom)
                  01013274    00000060                         : slnetsock.oem4 (.text:SlNetSock_sendTo)
                  010132d4    00000060     freertos_builds_CC3220SF_LAUNCHXL_release_ccs.lib : pthread_mutex.obj (.text:pthread_mutex_unlock)
                  01013334    00000060     sensors_queue.obj (.text:recieveMsgFromSensorQ)
                  01013394    0000005e     slnetifwifi.a : slnetifwifi.obj (.text:SlNetIfWifi_setSockOpt)
                  010133f2    0000005e     freertos_builds_CC3220SF_LAUNCHXL_release_ccs.lib : semaphore.obj (.text:sem_timedwait)
                  01013450    0000005c     drivers_cc32xx.aem4 : GPIOCC32XX.oem4 (.text:GPIO_setCallback)
                  010134ac    0000005c     mqtt_release.a : mqtt_net_func.oem4 (.text:MQTTNet_tcpListen)
                  01013508    0000005c     network_if.obj (.text:Network_IF_IpConfigGet)
                  01013564    0000005c     simplelink.a : spawn.obj (.text:_SlInternalSpawn)
                  010135c0    0000005c     freertos_builds_CC3220SF_LAUNCHXL_release_ccs.lib : memory.obj (.text:calloc)
                  0101361c    0000005c     rtsv7M4_T_le_eabi.lib : s_frexp.c.obj (.text:frexp)
                  01013678    0000005c     freertos_builds_CC3220SF_LAUNCHXL_release_ccs.lib : tasks.obj (.text:prvIdleTask)
                  010136d4    0000005c                                                       : pthread.obj (.text:pthread_exit)
                  01013730    0000005c                                                       : queue.obj (.text:vQueueWaitForMessageRestricted)
                  0101378c    0000005c                                                       : tasks.obj (.text:vTaskDelay)
                  010137e8    00000058     drivers_cc32xx.aem4 : GPIOCC32XX.oem4 (.text:GPIO_write)
                  01013840    00000058     driverlib.a : interrupt.obj (.text:IntPendClear)
                  01013898    00000058                 : prcm.obj (.text:PRCMPeripheralReset)
                  010138f0    00000058     drivers_cc32xx.aem4 : PowerCC32XX.oem4 (.text:Power_releaseDependency)
                  01013948    00000058     network_if.obj (.text:SimpleLinkNetAppEventHandler)
                  010139a0    00000058     slnetsock_release.a : slnetsock.oem4 (.text:SlNetSock_recv)
                  010139f8    00000058                         : slnetsock.oem4 (.text:SlNetSock_send)
                  01013a50    00000058     simplelink.a : sl_socket.obj (.text:_SlDrvClearCtrlSocket)
                  01013aa8    00000058     mqtt_release.a : client_core.oem4 (.text:clRecv)
                  01013b00    00000058     freertos_builds_CC3220SF_LAUNCHXL_release_ccs.lib : tasks.obj (.text:eTaskConfirmSleepModeStatus)
                  01013b58    00000058     mqtt_release.a : client_core.oem4 (.text:singleCtxKaSequence)
                  01013bb0    00000058     simplelink.a : sl_socket.obj (.text:sl_Listen)
                  01013c08    00000058                  : eventreg.obj (.text:sl_RegisterLibsEventHandler)
                  01013c60    00000058     freertos_builds_CC3220SF_LAUNCHXL_release_ccs.lib : port.obj (.text:vPortSetupTimerInterrupt)
                  01013cb8    00000058                                                       : queue.obj (.text:xQueueCreateCountingSemaphore)
                  01013d10    00000058                                                       : queue.obj (.text:xQueueTakeMutexRecursive)
                  01013d68    00000056     mqtt_release.a : mqtt_common.oem4 (.text:MQTT_packetPubAppendData)
                  01013dbe    00000056     freertos_builds_CC3220SF_LAUNCHXL_release_ccs.lib : SemaphoreP_freertos.obj (.text:SemaphoreP_create)
                  01013e14    00000056     drivers_cc32xx.aem4 : TimerCC32XX.oem4 (.text:TimerCC32XX_stop)
                  01013e6a    00000056     rtsv7M4_T_le_eabi.lib : _printfi.c.obj (.text:_pconv_f)
                  01013ec0    00000056     mqtt_release.a : client_core.oem4 (.text:procAckMsgRx)
                  01013f16    00000002     --HOLE-- [fill = 0]
                  01013f18    00000054     freertos_builds_CC3220SF_LAUNCHXL_release_ccs.lib : ClockP_freertos.obj (.text:ClockP_delete)
                  01013f6c    00000054     driverlib.a : interrupt.obj (.text:IntPrioritySet)
                  01013fc0    00000054     mqtt_release.a : client_core.oem4 (.text:MQTTClientCore_sendDisconn)
                  01014014    00000054     simplelink.a : driver.obj (.text:_SlDrvRxIrqHandler)
                  01014068    00000054     mqtt_release.a : client_core.oem4 (.text:grpNetSetupCreate)
                  010140bc    00000054     rtsv7M4_T_le_eabi.lib : ltoa.c.obj (.text:ltoa)
                  01014110    00000054     drivers_cc32xx.aem4 : UARTCC32XX.oem4 (.text:ringBufGet)
                  01014164    00000054     freertos_builds_CC3220SF_LAUNCHXL_release_ccs.lib : timers.obj (.text:xTimerCreateTimerTask)
                  010141b8    00000052     drivers_cc32xx.aem4 : PowerCC32XX_asm.oem4 (.text:PowerCC32XX_resumeLPDS)
                  0101420a    00000052     rtsv7M4_T_le_eabi.lib : _printfi.c.obj (.text:_ecpy)
                  0101425c    00000052     drivers_cc32xx.aem4 : TimerCC32XX.oem4 (.text:initHw)
                  010142ae    00000050                         : I2CCC32XX.oem4 (.text:I2CCC32XX_completeTransfer)
                  010142fe    00000002     --HOLE-- [fill = 0]
                  01014300    00000050     simplelink.a : cc_pal.obj (.text:NwpRegisterInterruptHandler)
                  01014350    00000050     slnetsock_release.a : slnetif.oem4 (.text:SlNetIf_queryIf)
                  010143a0    00000050     drivers_cc32xx.aem4 : TimerCC32XX.oem4 (.text:TimerCC32XX_allocateTimerResource)
                  010143f0    00000050     simplelink.a : sl_socket.obj (.text:_SlDrvCloseCtrlSocket)
                  01014440    00000050                  : driver.obj (.text:_SlDrvCmdSend_noWait)
                  01014490    00000050                  : driver.obj (.text:_SlDrvUpdateApiInProgress)
                  010144e0    00000050                  : spawn.obj (.text:_SlInternalSpawnTaskEntry)
                  01014530    00000050                  : eventreg.obj (.text:_SlNetAppHttpServerHdlr)
                  01014580    00000050                  : eventreg.obj (.text:_SlNetAppRequestHdlr)
                  010145d0    00000050     mqtt_release.a : client_core.oem4 (.text:_procAckMsgRx)
                  01014620    00000050     freertos_builds_CC3220SF_LAUNCHXL_release_ccs.lib : port.obj (.text:pxPortInitialiseStack)
                  01014670    00000050                                                       : semaphore.obj (.text:sem_init)
                  010146c0    00000050                                                       : queue.obj (.text:xQueueGiveMutexRecursive)
                  01014710    0000004e     mqtt_release.a : client_core.oem4 (.text:MQTTClientCore_registerWillInfo)
                  0101475e    00000002     --HOLE-- [fill = 0]
                  01014760    0000004c     drivers_cc32xx.aem4 : GPIOCC32XX.oem4 (.text:GPIO_enableInt)
                  010147ac    0000004c     simplelink.a : cc_pal.obj (.text:NwpWaitForShutDownInd)
                  010147f8    0000004c     drivers_cc32xx.aem4 : PowerCC32XX.oem4 (.text:PowerCC32XX_parkPin)
                  01014844    0000004c     slnetifwifi.a : slnetifwifi.obj (.text:SlNetIfWifi_getConnectionStatus)
                  01014890    0000004c     slnetsock_release.a : slnetsock.oem4 (.text:SlNetSock_freeVirtualSocket)
                  010148dc    0000004c                         : slnetsock.oem4 (.text:SlNetSock_startSec)
                  01014928    0000004c     mqtt_release.a : client_core.oem4 (.text:ack1WlMqpDispatch)
                  01014974    0000004c     rtsv7M4_T_le_eabi.lib : atoi.c.obj (.text:atoi)
                  010149c0    0000004c     debug.obj (.text:dbgTerminalError)
                  01014a0c    0000004c     freertos_builds_CC3220SF_LAUNCHXL_release_ccs.lib : startup_cc32xx_ccs.obj (.text:initVectors)
                  01014a58    0000004c     mqtt_release.a : client_core.oem4 (.text:loopbTrigger)
                  01014aa4    0000004c     freertos_builds_CC3220SF_LAUNCHXL_release_ccs.lib : timers.obj (.text:prvCheckForValidListAndQueue)
                  01014af0    0000004c                                                       : tasks.obj (.text:prvCheckTasksWaitingTermination)
                  01014b3c    0000004c     drivers_cc32xx.aem4 : PowerCC32XX.oem4 (.text:restorePeriphClocks)
                  01014b88    0000004c     mqtt_release.a : client_core.oem4 (.text:singleCtxRxPrep)
                  01014bd4    0000004c     simplelink.a : wlan.obj (.text:sl_WlanSetMode)
                  01014c20    0000004c     rtsv7M4_T_le_eabi.lib : snprintf.c.obj (.text:snprintf)
                  01014c6c    0000004c     freertos_builds_CC3220SF_LAUNCHXL_release_ccs.lib : port.obj (.text:vPortEnterCritical)
                  01014cb8    0000004a     mqtt_release.a : client_core.oem4 (.text:clCtxRecv)
                  01014d02    00000002     --HOLE-- [fill = 0]
                  01014d04    00000048     driverlib.a : flash.obj (.text:FlashDisable)
                  01014d4c    00000048     freertos_builds_CC3220SF_LAUNCHXL_release_ccs.lib : HwiPCC32XX_freertos.obj (.text:HwiP_dispatch)
                  01014d94    00000048     mqtt_release.a : mqttclient.oem4 (.text:MQTTClient_set)
                  01014ddc    00000048     driverlib.a : prcm.obj (.text:PRCMLPDSEnter)
                  01014e24    00000048                 : prcm.obj (.text:PRCMPeripheralClkEnable)
                  01014e6c    00000048     drivers_cc32xx.aem4 : PowerCC32XX.oem4 (.text:Power_releaseConstraint)
                  01014eb4    00000048     slnetsock_release.a : slnetsock.oem4 (.text:SlNetSock_connect)
                  01014efc    00000048                         : slnetsock.oem4 (.text:SlNetSock_init)
                  01014f44    00000048                         : slnetsock.oem4 (.text:SlNetSock_setOpt)
                  01014f8c    00000048     simplelink.a : eventreg.obj (.text:_SlDeviceFatalErrorEvtHdlr)
                  01014fd4    00000048                  : eventreg.obj (.text:_SlDeviceGeneralEvtHdlr)
                  0101501c    00000048                  : driver.obj (.text:_SlDrvBasicCmd)
                  01015064    00000048                  : driver.obj (.text:_SlDrvSyncObjWaitTimeout)
                  010150ac    00000048                  : eventreg.obj (.text:_SlNetAppEvtHdlr)
                  010150f4    00000048                  : eventreg.obj (.text:_SlNetAppRequestMemFree)
                  0101513c    00000048                  : eventreg.obj (.text:_SlSockEvtHdlr)
                  01015184    00000048                  : eventreg.obj (.text:_SlWlanEvtHdlr)
                  010151cc    00000048     mqtt_release.a : client_core.oem4 (.text:clCtxSetup)
                  01015214    00000048     client_cbs.obj (.text:jsoneq)
                  0101525c    00000048     rtsv7M4_T_le_eabi.lib : fd_toi_t2.asm.obj (.text)
                  010152a4    00000048     freertos_builds_CC3220SF_LAUNCHXL_release_ccs.lib : sleep.obj (.text:sleep)
                  010152ec    00000048                                                       : list.obj (.text:uxListRemove)
                  01015334    00000048     mqtt_release.a : client_core.oem4 (.text:wrConnectVh)
                  0101537c    00000046     drivers_cc32xx.aem4 : RingBuf.oem4 (.text:RingBuf_put)
                  010153c2    00000046                         : TimerCC32XX.oem4 (.text:getPrescaler)
                  01015408    00000044                         : ADC.oem4 (.text:ADC_init)
                  0101544c    00000044                         : I2C.oem4 (.text:I2C_init)
                  01015490    00000044     mqtt_release.a : client_core.oem4 (.text:MQTTClientCore_run)
                  010154d4    00000044                    : mqtt_net_func.oem4 (.text:MQTTNet_tcpRecv)
                  01015518    00000044     driverlib.a : prcm.obj (.text:PRCMLPDSRestoreInfoSet)
                  0101555c    00000044     drivers_cc32xx.aem4 : PowerCC32XX_asm.oem4 (.text:PowerCC32XX_enterLPDS)
                  010155a0    00000044                         : SPI.oem4 (.text:SPI_init)
                  010155e4    00000044     slnetsock_release.a : slnetutils.oem4 (.text:SlNetUtil_strTok)
                  01015628    00000044     drivers_cc32xx.aem4 : Timer.oem4 (.text:Timer_init)
                  0101566c    00000044                         : UART.oem4 (.text:UART_init)
                  010156b0    00000044     rtsv7M4_T_le_eabi.lib : autoinit.c.obj (.text:__TI_auto_init_nobinit_nopinit:__TI_auto_init_nobinit_nopinit)
                  010156f4    00000044     freertos_builds_CC3220SF_LAUNCHXL_release_ccs.lib : queue.obj (.text:prvInitialiseNewQueue)
                  01015738    00000044     rtsv7M4_T_le_eabi.lib : fd_tou_t2.asm.obj (.text)
                  0101577c    00000044     freertos_builds_CC3220SF_LAUNCHXL_release_ccs.lib : tasks.obj (.text:vTaskStepTick)
                  010157c0    00000044     mqtt_release.a : client_core.oem4 (.text:vhMsgSend)
                  01015804    00000042                    : mqtt_common.oem4 (.text:MQTT_packetBufRdRemlen)
                  01015846    00000042     freertos_builds_CC3220SF_LAUNCHXL_release_ccs.lib : memory.obj (.text:malloc)
                  01015888    00000040     drivers_cc32xx.aem4 : ADC.oem4 (.text:ADC_open)
                  010158c8    00000040     simplelink.a : sl_socket.obj (.text:CountSetBits)
                  01015908    00000040     drivers_cc32xx.aem4 : I2C.oem4 (.text:I2C_open)
                  01015948    00000040     network_if.obj (.text:InitializeAppVariables)
                  01015988    00000040     mqtt_release.a : client_core.oem4 (.text:MQTTClientCore_registerCtxInfo)
                  010159c8    00000040     driverlib.a : pin.obj (.text:PinModeSet)
                  01015a08    00000040     drivers_cc32xx.aem4 : RingBuf.oem4 (.text:RingBuf_get)
                  01015a48    00000040                         : SPI.oem4 (.text:SPI_open)
                  01015a88    00000040     slnetsock_release.a : slnetsock.oem4 (.text:SlNetSock_bind)
                  01015ac8    00000040                         : slnetsock.oem4 (.text:SlNetSock_secAttribSet)
                  01015b08    00000040     drivers_cc32xx.aem4 : Timer.oem4 (.text:Timer_open)
                  01015b48    00000040                         : UARTCC32XX.oem4 (.text:UARTCC32XX_read)
                  01015b88    00000040                         : UART.oem4 (.text:UART_open)
                  01015bc8    00000040                         : UDMACC32XX.oem4 (.text:UDMACC32XX_init)
                  01015c08    00000040     simplelink.a : driver.obj (.text:_SlDrvGlobalObjUnLock)
                  01015c48    00000040                  : driver.obj (.text:_SlFindAndReleasePendingCmd)
                  01015c88    00000040                  : spawn.obj (.text:_SlInternalSpawnWaitForEvent)
                  01015cc8    00000040                  : eventreg.obj (.text:_SlIsEventRegistered)
                  01015d08    00000040     mqtt_release.a : mqttclient.oem4 (.text:_sl_ExtLib_ServerAckLockedWait)
                  01015d48    00000040     client_cbs.obj (.text:jsmn_alloc_token)
                  01015d88    00000040     mqtt_release.a : client_core.oem4 (.text:netConnect)
                  01015dc8    00000040     freertos_builds_CC3220SF_LAUNCHXL_release_ccs.lib : tasks.obj (.text:vTaskPlaceOnEventListRestricted)
                  01015e08    0000003e                                                       : ClockP_freertos.obj (.text:ClockP_callbackFxn)
                  01015e46    0000003e     mqtt_release.a : mqtt_common.oem4 (.text:MQTT_packetAckWlistRemove)
                  01015e84    0000003e                    : mqtt_common.oem4 (.text:MQTT_packetBufTailWrRemlen)
                  01015ec2    0000003e     slnetsock_release.a : slnetsock.oem4 (.text:SlNetSock_close)
                  01015f00    0000003e     simplelink.a : sl_socket.obj (.text:_SlSocketBuildAddress)
                  01015f3e    0000003e     rtsv7M4_T_le_eabi.lib : _printfi.c.obj (.text:_fcpy)
                  01015f7c    0000003e     mqtt_release.a : client_core.oem4 (.text:clCtxSeg1Send)
                  01015fba    0000003e                    : client_core.oem4 (.text:procPingrspRx)
                  01015ff8    0000003e     freertos_builds_CC3220SF_LAUNCHXL_release_ccs.lib : pthread.obj (.text:pthread_setcancelstate)
                  01016036    0000003e                                                       : semaphore.obj (.text:sem_post)
                  01016074    0000003c     mqtt_release.a : client_core.oem4 (.text:MQTTClientCore_registerBuffers)
                  010160b0    0000003c                    : mqttclient.oem4 (.text:MQTTClient_disconnect)
                  010160ec    0000003c                    : mqtt_common.oem4 (.text:MQTT_qos2PubCqCheck)
                  01016128    0000003c     network_if.obj (.text:Network_IF_DisconnectFromAP)
                  01016164    0000003c     driverlib.a : prcm.obj (.text:PRCMSlowClkCtrFastGet)
                  010161a0    0000003c     drivers_cc32xx.aem4 : PowerCC32XX.oem4 (.text:Power_setConstraint)
                  010161dc    0000003c     simplelink.a : netapp.obj (.text:_SlNetAppCopyPingResultsToReport)
                  01016218    0000003c     ultraSonar_main.obj (.text:initUart)
                  01016254    0000003c     mqtt_release.a : mqttclient.oem4 (.text:processDisconnCB)
                  01016290    0000003c     freertos_builds_CC3220SF_LAUNCHXL_release_ccs.lib : queue.obj (.text:prvCopyDataFromQueue)
                  010162cc    0000003c                                                       : tasks.obj (.text:prvResetNextTaskUnblockTime)
                  01016308    0000003c                                                       : tasks.obj (.text:pvTaskGetThreadLocalStoragePointer)
                  01016344    0000003c     pixy_queue.obj (.text:sendI2CMsgToPixyQ)
                  01016380    0000003c     pixy_queue.obj (.text:sendTimeMsgToPixyQ)
                  010163bc    0000003c     mqtt_release.a : client_core.oem4 (.text:singleCtxRxPrepLocked)
                  010163f8    0000003c                    : client_core.oem4 (.text:tailIncorpMsgID)
                  01016434    0000003c     simplelink.a : sl_socket.obj (.text:to_mSec)
                  01016470    0000003c     freertos_builds_CC3220SF_LAUNCHXL_release_ccs.lib : sleep.obj (.text:usleep)
                  010164ac    0000003c                                                       : list.obj (.text:vListInsertEnd)
                  010164e8    0000003c                                                       : timers.obj (.text:xTimerCreate)
                  01016524    0000003a     slnetifwifi.a : slnetifwifi.obj (.text:SlNetIfWifi_getIPAddr)
                  0101655e    0000003a     drivers_cc32xx.aem4 : TimerCC32XX.oem4 (.text:TimerCC32XX_close)
                  01016598    0000003a     mqtt_release.a : mqtt_common.oem4 (.text:mqpProcVhMsgIdRx)
                  010165d2    00000002     --HOLE-- [fill = 0]
                  010165d4    00000038                    : client_core.oem4 (.text:MQTTClientCore_registerNetSvc)
                  0101660c    00000038                    : mqtt_common.oem4 (.text:MQTT_qos2PubCqLogup)
                  01016644    00000038     driverlib.a : prcm.obj (.text:PRCMLPDSEnterKeepDebugIf)
                  0101667c    00000038     slnetifwifi.a : slnetifwifi.obj (.text:SlNetIfWifi_recvFrom)
                  010166b4    00000038                   : slnetifwifi.obj (.text:SlNetIfWifi_sendTo)
                  010166ec    00000038                   : slnetifwifi.obj (.text:SlNetIfWifi_socket)
                  01016724    00000038     slnetsock_release.a : slnetif.oem4 (.text:SlNetIf_configCheck)
                  0101675c    00000038                         : slnetsock.oem4 (.text:SlNetSock_listen)
                  01016794    00000038                         : slnetutils.oem4 (.text:SlNetUtil_htonl)
                  010167cc    00000038     mqtt_release.a : client_core.oem4 (.text:mqpAllocAtomic)
                  01016804    00000038                    : client_core.oem4 (.text:netRecv)
                  0101683c    00000038     drivers_cc32xx.aem4 : PowerCC32XX.oem4 (.text:notify)
                  01016874    00000038     freertos_builds_CC3220SF_LAUNCHXL_release_ccs.lib : timers.obj (.text:prvGetNextExpireTime)
                  010168ac    00000038                                                       : port.obj (.text:prvTaskExitError)
                  010168e4    00000038     rtsv7M4_T_le_eabi.lib : sscanf.c.obj (.text:sscanf)
                  0101691c    00000036     mqtt_release.a : mqtt_common.oem4 (.text:MQTT_packetPrepFh)
                  01016952    00000036     slnetifwifi.a : slnetifwifi.obj (.text:SlNetIfWifi_getHostByName)
                  01016988    00000036                   : slnetifwifi.obj (.text:SlNetIfWifi_select)
                  010169be    00000036     drivers_cc32xx.aem4 : TimerCC32XX.oem4 (.text:TimerCC32XX_hwiIntFunction)
                  010169f4    00000036     driverlib.a : timer.obj (.text:TimerControlStall)
                  01016a2a    00000036     drivers_cc32xx.aem4 : UARTCC32XX.oem4 (.text:UARTCC32XX_readCancel)
                  01016a60    00000036     mqtt_release.a : client_core.oem4 (.text:_procPubRecRx)
                  01016a96    00000036     rtsv7M4_T_le_eabi.lib : strncpy.c.obj (.text:strncpy)
                  01016acc    00000034     driverlib.a : pin.obj (.text:PinModeGet)
                  01016b00    00000034     drivers_cc32xx.aem4 : PowerCC32XX.oem4 (.text:PowerCC32XX_restoreParkState)
                  01016b34    00000034     freertos_builds_CC3220SF_LAUNCHXL_release_ccs.lib : SemaphoreP_freertos.obj (.text:SemaphoreP_pend)
                  01016b68    00000034     slnetsock_release.a : slnetutils.oem4 (.text:SlNetUtil_htons)
                  01016b9c    00000034     drivers_cc32xx.aem4 : TimerCC32XX.oem4 (.text:TimerCC32XX_freeTimerResource)
                  01016bd0    00000034                         : UDMACC32XX.oem4 (.text:UDMACC32XX_close)
                  01016c04    00000034     debug.obj (.text:dbgOutputLoc)
                  01016c38    00000034     drivers_cc32xx.aem4 : TimerCC32XX.oem4 (.text:getPowerMgrId)
                  01016c6c    00000034     mqtt_release.a : client_core.oem4 (.text:groupCtxsKaSequence)
                  01016ca0    00000034     timer_pixy.obj (.text:init_timerPixy)
                  01016cd4    00000034     mqtt_release.a : client_core.oem4 (.text:mqpFreeLocked)
                  01016d08    00000034                    : client_core.oem4 (.text:procLoopbackRecv)
                  01016d3c    00000034     freertos_builds_CC3220SF_LAUNCHXL_release_ccs.lib : timers.obj (.text:prvSampleTimeNow)
                  01016d70    00000034     mqtt_queue.obj (.text:sendMqttFinishToSensorQ)
                  01016da4    00000034     freertos_builds_CC3220SF_LAUNCHXL_release_ccs.lib : tasks.obj (.text:vTaskPlaceOnEventList)
                  01016dd8    00000034                                                       : tasks.obj (.text:vTaskSetThreadLocalStoragePointer)
                  01016e0c    00000032     mqtt_release.a : mqtt_common.oem4 (.text:MQTT_clCtxTimeoutInsert)
                  01016e3e    00000032                    : client_core.oem4 (.text:connectedStateRx)
                  01016e70    00000030     drivers_cc32xx.aem4 : PowerCC32XX.oem4 (.text:PowerCC32XX_restoreParkedPin)
                  01016ea0    00000030     simplelink.a : fs.obj (.text:_SlFsStrlen)
                  01016ed0    00000030     rtsv7M4_T_le_eabi.lib : snprintf.c.obj (.text:_outs)
                  01016f00    00000030     mqtt_release.a : client_core.oem4 (.text:ack2MsgIdUnlog)
                  01016f30    00000030                    : client_core.oem4 (.text:bufUTF8WrTry)
                  01016f60    00000030                    : client_core.oem4 (.text:clientDescInit)
                  01016f90    00000030                    : mqttclient.oem4 (.text:getAvailableClictxMem)
                  01016fc0    00000030     freertos_builds_CC3220SF_LAUNCHXL_release_ccs.lib : list.obj (.text:vListInitialise)
                  01016ff0    00000030                                                       : port.obj (.text:vPortExitCritical)
                  01017020    00000030                                                       : tasks.obj (.text:xTaskGetSchedulerState)
                  01017050    0000002e     simplelink.a : cc_pal.obj (.text:Mutex_create_handle)
                  0101707e    0000002e     timer_pixy.obj (.text:init_I2C_transaction)
                  010170ac    0000002e     freertos_builds_CC3220SF_LAUNCHXL_release_ccs.lib : timers.obj (.text:pvTimerGetTimerID)
                  010170da    0000002e     rtsv7M4_T_le_eabi.lib : i_tofd_t2.asm.obj (.text)
                  01017108    0000002c     freertos_builds_CC3220SF_LAUNCHXL_release_ccs.lib : HwiPCC32XX_freertos.obj (.text:HwiP_disable)
                  01017134    0000002c     simplelink.a : cc_pal.obj (.text:NwpPowerOn)
                  01017160    0000002c     driverlib.a : prcm.obj (.text:PRCMLPDSIntervalSet)
                  0101718c    0000002c     drivers_cc32xx.aem4 : PowerCC32XX.oem4 (.text:PowerCC32XX_getParkState)
                  010171b8    0000002c     freertos_builds_CC3220SF_LAUNCHXL_release_ccs.lib : SemaphoreP_freertos.obj (.text:SemaphoreP_createBinary)
                  010171e4    0000002c     slnetifwifi.a : slnetifwifi.obj (.text:SlNetIfWifi_recv)
                  01017210    0000002c                   : slnetifwifi.obj (.text:SlNetIfWifi_send)
                  0101723c    0000002c     simplelink.a : driver.obj (.text:_SlDrvSyncObjWaitForever)
                  01017268    0000002c     mqtt_release.a : client_core.oem4 (.text:doNetCloseRx)
                  01017294    0000002c     timer_pixy.obj (.text:init_I2C)
                  010172c0    0000002c     client_cbs.obj (.text:jsmn_fill_token)
                  010172ec    0000002c     freertos_builds_CC3220SF_LAUNCHXL_release_ccs.lib : pthread_mutex.obj (.text:pthread_mutexattr_settype)
                  01017318    0000002c     mqtt_queue.obj (.text:sendMsgToMqtt)
                  01017344    0000002c     sensors_queue.obj (.text:sendMsgToSensorQ)
                  01017370    0000002c     mqtt_queue.obj (.text:sendMsgToStatQueue)
                  0101739c    0000002c     mqtt_release.a : client_core.oem4 (.text:singleCtxAdjWaitSecsGet)
                  010173c8    0000002c     rtsv7M4_T_le_eabi.lib : strncmp.c.obj (.text:strncmp)
                  010173f4    0000002c     freertos_builds_CC3220SF_LAUNCHXL_release_ccs.lib : tasks.obj (.text:vTaskSetApplicationTaskTag)
                  01017420    0000002c                                                       : port.obj (.text:xPortSysTickHandler)
                  0101744c    0000002c                                                       : queue.obj (.text:xQueueCreateMutex)
                  01017478    0000002a     slnetsock_release.a : slnetutils.oem4 (.text:SlNetUtil_inetPton)
                  010174a2    0000002a     driverlib.a : timer.obj (.text:TimerLoadSet)
                  010174cc    0000002a                 : timer.obj (.text:TimerPrescaleSet)
                  010174f6    0000002a     mqtt_release.a : client_core.oem4 (.text:ack2MsgIdDispatch)
                  01017520    0000002a                    : client_core.oem4 (.text:pingReqSend)
                  0101754a    0000002a     freertos_builds_CC3220SF_LAUNCHXL_release_ccs.lib : queue.obj (.text:prvInitialiseMutex)
                  01017574    0000002a     mqtt_release.a : client_core.oem4 (.text:txPartSetup)
                  0101759e    0000002a     freertos_builds_CC3220SF_LAUNCHXL_release_ccs.lib : queue.obj (.text:uxQueueMessagesWaiting)
                  010175c8    00000028                                                       : HwiPCC32XX_freertos.obj (.text:HwiP_inISR)
                  010175f0    00000028     mqtt_release.a : mqtt_common.oem4 (.text:MQTT_packetBufWrUtf8)
                  01017618    00000028     mqtt_client_app.obj (.text:MqttClientThread)
                  01017640    00000028     driverlib.a : prcm.obj (.text:PRCMLPDSWakeupSourceEnable)
                  01017668    00000028                 : prcm.obj (.text:PRCMPeripheralClkDisable)
                  01017690    00000028     drivers_cc32xx.aem4 : PowerCC32XX.oem4 (.text:Power_registerNotify)
                  010176b8    00000028     slnetsock_release.a : slnetif.oem4 (.text:SlNetIf_getIfByID)
                  010176e0    00000028                         : slnetsock.oem4 (.text:SlNetSock_sdsIsSet)
                  01017708    00000028                         : slnetsock.oem4 (.text:SlNetSock_sdsSet)
                  01017730    00000028                         : slnetsock.oem4 (.text:SlNetSock_secAttribDelete)
                  01017758    00000028     simplelink.a : driver.obj (.text:_SlDrvProtectionObjLockWaitForever)
                  01017780    00000028                  : driver.obj (.text:_SlDrvProtectionObjUnLock)
                  010177a8    00000028                  : flowcont.obj (.text:_SlFlowContSet)
                  010177d0    00000028     mqtt_release.a : client_core.oem4 (.text:_procPubRelRx)
                  010177f8    00000028                    : mqttclient.oem4 (.text:_sl_ExtLib_AwaitedAckLockedSet)
                  01017820    00000028     freertos_builds_CC3220SF_LAUNCHXL_release_ccs.lib : pthread.obj (.text:pthread_attr_setschedparam)
                  01017848    00000028                                                       : semaphore.obj (.text:sem_trywait)
                  01017870    00000028                                                       : tasks.obj (.text:xTaskGetApplicationTaskTag)
                  01017898    00000026     drivers_cc32xx.aem4 : List.oem4 (.text:List_put)
                  010178be    00000026                         : List.oem4 (.text:List_remove)
                  010178e4    00000026     mqtt_release.a : mqtt_common.oem4 (.text:MQTT_clCtxRemove)
                  0101790a    00000026     freertos_builds_CC3220SF_LAUNCHXL_release_ccs.lib : pthread.obj (.text:_pthread_cleanup_pop)
                  01017930    00000026                                                       : queue.obj (.text:prvIsQueueFull)
                  01017956    00000002     --HOLE-- [fill = 0]
                  01017958    00000024     driverlib.a : interrupt.obj (.text:IntUnregister)
                  0101797c    00000024     slnetsock_release.a : slnetif.oem4 (.text:SlNetIf_getConnectionStatus)
                  010179a0    00000024     simplelink.a : driver.obj (.text:_SlDrvIsApiInProgress)
                  010179c4    00000024                  : driver.obj (.text:_SlDrvStartMeasureTimeout)
                  010179e8    00000024     rtsv7M4_T_le_eabi.lib : boot_cortex_m.c.obj (.text:_c_int00_noargs:_c_int00_noargs)
                  01017a0c    00000024     mqtt_release.a : client_core.oem4 (.text:conn2usedCtxs)
                  01017a30    00000024     mqtt_queue.obj (.text:createStatQ)
                  01017a54    00000024     freertos_builds_CC3220SF_LAUNCHXL_release_ccs.lib : queue.obj (.text:prvGetDisinheritPriorityAfterTimeout)
                  01017a78    00000024     mqtt_queue.obj (.text:recieveMsgFromMqtt)
                  01017a9c    00000024     mqtt_queue.obj (.text:recieveMsgFromStatQueue)
                  01017ac0    00000024     mqtt_release.a : client_core.oem4 (.text:recvHvecLoad)
                  01017ae4    00000024     freertos_builds_CC3220SF_LAUNCHXL_release_ccs.lib : semaphore.obj (.text:sem_getvalue)
                  01017b08    00000024     simplelink.a : wlan.obj (.text:sl_WlanDisconnect)
                  01017b2c    00000024     freertos_builds_CC3220SF_LAUNCHXL_release_ccs.lib : queue.obj (.text:vQueueDelete)
                  01017b50    00000024                                                       : tasks.obj (.text:vTaskInternalSetTimeOutState)
                  01017b74    00000022     mqtt_release.a : mqtt_common.oem4 (.text:MQTT_packetProcMsgIdAckRx)
                  01017b96    00000022     freertos_builds_CC3220SF_LAUNCHXL_release_ccs.lib : SemaphoreP_freertos.obj (.text:SemaphoreP_post)
                  01017bb8    00000022                                                       : aeabi_portable.obj (.text:__aeabi_errno_addr)
                  01017bda    00000022                                                       : pthread.obj (.text:pthread_attr_setdetachstate)
                  01017bfc    00000020     drivers_cc32xx.aem4 : ADCCC32XX.oem4 (.text:ADCCC32XX_convertToMicroVolts)
                  01017c1c    00000020     freertos_builds_CC3220SF_LAUNCHXL_release_ccs.lib : ClockP_freertos.obj (.text:ClockP_getCpuFreq)
                  01017c3c    00000020                                                       : HwiPCC32XX_freertos.obj (.text:HwiP_restore)
                  01017c5c    00000020     driverlib.a : interrupt.obj (.text:IntRegister)
                  01017c7c    00000020     mqtt_release.a : mqtt_common.oem4 (.text:MQTT_qos2PubCqReset)
                  01017c9c    00000020     drivers_cc32xx.aem4 : PowerCC32XX.oem4 (.text:Power_unregisterNotify)
                  01017cbc    00000020                         : RingBuf.oem4 (.text:RingBuf_peek)
                  01017cdc    00000020     slnetifwifi.a : slnetifwifi.obj (.text:SlNetIfWifi_accept)
                  01017cfc    00000020     mqtt_queue.obj (.text:createMqttQ)
                  01017d1c    00000020     pixy_queue.obj (.text:createPixyQ)
                  01017d3c    00000020     sensors_queue.obj (.text:createSensorQ)
                  01017d5c    00000020     drivers_cc32xx.aem4 : SPICC32XXDMA.oem4 (.text:getPowerMgrId)
                  01017d7c    00000020                         : UARTCC32XX.oem4 (.text:getPowerMgrId)
                  01017d9c    00000020     timer_pixy.obj (.text:i2cCallback)
                  01017dbc    00000020     freertos_builds_CC3220SF_LAUNCHXL_release_ccs.lib : queue.obj (.text:prvIsQueueEmpty)
                  01017ddc    00000020     rtsv7M4_T_le_eabi.lib : u_tofd_t2.asm.obj (.text)
                  01017dfc    00000020     freertos_builds_CC3220SF_LAUNCHXL_release_ccs.lib : semaphore.obj (.text:semaphorePend)
                  01017e1c    00000020     mqtt_release.a : client_core.oem4 (.text:session311fix)
                  01017e3c    0000001e     freertos_builds_CC3220SF_LAUNCHXL_release_ccs.lib : ClockP_freertos.obj (.text:ClockP_start)
                  01017e5a    0000001e                                                       : HwiPCC32XX_freertos.obj (.text:HwiP_Params_init)
                  01017e78    0000001e     mqtt_release.a : client_core.oem4 (.text:MQTTClientCore_alloc)
                  01017e96    0000001e                    : client_core.oem4 (.text:MQTTClientCore_ctxRun)
                  01017eb4    0000001e     slnetifwifi.a : slnetifwifi.obj (.text:SlNetIfWifi_bind)
                  01017ed2    0000001e                   : slnetifwifi.obj (.text:SlNetIfWifi_connect)
                  01017ef0    0000001e     driverlib.a : timer.obj (.text:TimerDisable)
                  01017f0e    0000001e                 : timer.obj (.text:TimerEnable)
                  01017f2c    0000001e     simplelink.a : driver.obj (.text:_SlDrvObjLockWaitForever)
                  01017f4a    0000001e                  : driver.obj (.text:_SlDrvObjUnLock)
                  01017f68    0000001e                  : driver.obj (.text:_SlDrvSyncObjSignal)
                  01017f86    0000001e     freertos_builds_CC3220SF_LAUNCHXL_release_ccs.lib : pthread.obj (.text:_pthread_runStub)
                  01017fa4    0000001e     client_cbs.obj (.text:jsmn_init)
                  01017fc2    0000001e     drivers_cc32xx.aem4 : UDMACC32XX.oem4 (.text:postNotifyFxn)
                  01017fe0    0000001e     mqtt_release.a : client_core.oem4 (.text:procNetDataRecv)
                  01017ffe    0000001e                    : client_core.oem4 (.text:sessionDelete)
                  0101801c    0000001c     freertos_builds_CC3220SF_LAUNCHXL_release_ccs.lib : ClockP_freertos.obj (.text:ClockP_Params_init)
                  01018038    0000001c     driverlib.a : pin.obj (.text:PinToPadGet)
                  01018054    0000001c     simplelink.a : device.obj (.text:_SlDeviceGetStartResponseConvert)
                  01018070    0000001c                  : spawn.obj (.text:_SlInternalIsItSpawnThread)
                  0101808c    0000001c     mqtt_release.a : client_core.oem4 (.text:doNetCloseTx)
                  010180a8    0000001c     rtsv7M4_T_le_eabi.lib : memccpy.c.obj (.text:memccpy)
                  010180c4    0000001c     mqtt_release.a : client_core.oem4 (.text:processRecv)
                  010180e0    0000001c     freertos_builds_CC3220SF_LAUNCHXL_release_ccs.lib : pthread.obj (.text:pthread_attr_init)
                  010180fc    0000001c                                                       : pthread_mutex.obj (.text:pthread_mutexattr_init)
                  01018118    0000001c                                                       : tasks.obj (.text:pvTaskIncrementMutexHeldCount)
                  01018134    0000001c     mqtt_release.a : client_core.oem4 (.text:usedCtxsTOSort)
                  01018150    0000001a                    : mqtt_common.oem4 (.text:MQTT_packetAckWlistPurge)
                  0101816a    0000001a     freertos_builds_CC3220SF_LAUNCHXL_release_ccs.lib : PTLS.obj (.text:PTLS_taskDeleteHook)
                  01018184    0000001a     slnetifwifi.a : slnetifwifi.obj (.text:SlNetIfWifi_listen)
                  0101819e    0000001a     freertos_builds_CC3220SF_LAUNCHXL_release_ccs.lib : timers.obj (.text:prvTimerTask)
                  010181b8    0000001a                                                       : pthread_mutex.obj (.text:pthread_mutex_destroy)
                  010181d2    00000018     mqtt_release.a : mqtt_common.oem4 (.text:MQTT_clCtxTimeoutUpdate)
                  010181ea    00000002     --HOLE-- [fill = 0]
                  010181ec    00000018     drivers_cc32xx.aem4 : PowerCC32XX.oem4 (.text:Power_idleFunc)
                  01018204    00000018                         : TimerCC32XX.oem4 (.text:TimerCC32XX_getCount)
                  0101821c    00000018     driverlib.a : timer.obj (.text:TimerIntDisable)
                  01018234    00000018                 : timer.obj (.text:TimerIntEnable)
                  0101824c    00000018                 : uart.obj (.text:UARTBusy)
                  01018264    00000018                 : uart.obj (.text:UARTIntEnable)
                  0101827c    00000018     rtsv7M4_T_le_eabi.lib : snprintf.c.obj (.text:_outc)
                  01018294    00000018     freertos_builds_CC3220SF_LAUNCHXL_release_ccs.lib : memory.obj (.text:free)
                  010182ac    00000018     mqtt_release.a : client_core.oem4 (.text:groupCtxsAdjWaitSecsGet)
                  010182c4    00000018                    : client_core.oem4 (.text:netClCtxFind)
                  010182dc    00000018     timer_pixy.obj (.text:read_I2C)
                  010182f4    00000018     rtsv7M4_T_le_eabi.lib : ll_mul_t2.asm.obj (.text)
                  0101830c    00000018     freertos_builds_CC3220SF_LAUNCHXL_release_ccs.lib : semaphore.obj (.text:sem_wait)
                  01018324    00000018     rtsv7M4_T_le_eabi.lib : strrchr.c.obj (.text:strrchr)
                  0101833c    00000016     freertos_builds_CC3220SF_LAUNCHXL_release_ccs.lib : ClockP_freertos.obj (.text:ClockP_setTimeout)
                  01018352    00000016     mqtt_release.a : mqtt_net_func.oem4 (.text:MQTTNet_commClose)
                  01018368    00000016                    : mqtt_common.oem4 (.text:MQTT_clCtxReset)
                  0101837e    00000016                    : mqtt_common.oem4 (.text:MQTT_packetFree)
                  01018394    00000016                    : mqtt_common.oem4 (.text:MQTT_packetInit)
                  010183aa    00000016     driverlib.a : prcm.obj (.text:PRCMHIBRegRead)
                  010183c0    00000016                 : prcm.obj (.text:PRCMHIBRegWrite)
                  010183d6    00000016     freertos_builds_CC3220SF_LAUNCHXL_release_ccs.lib : PTLS.obj (.text:PTLS_getBuf)
                  010183ec    00000016                                                       : PTLS.obj (.text:PTLS_setBuf)
                  01018402    00000016                                                       : SemaphoreP_freertos.obj (.text:SemaphoreP_Params_init)
                  01018418    00000016     simplelink.a : driver.obj (.text:_SlDrvMemZero)
                  0101842e    00000016     timer_pixy.obj (.text:pixyTimerCallback)
                  01018444    00000016     freertos_builds_CC3220SF_LAUNCHXL_release_ccs.lib : startup_cc32xx_ccs.obj (.text:resetISR)
                  0101845a    00000016     rtsv7M4_T_le_eabi.lib : strchr.c.obj (.text:strchr)
                  01018470    00000014     driverlib.a : cpu.obj (.text:CPUcpsie)
                  01018484    00000014                 : interrupt.obj (.text:IntVTableBaseSet)
                  01018498    00000014     mqtt_release.a : mqttclient.oem4 (.text:MQTTClient_publish)
                  010184ac    00000014                    : mqtt_net_func.oem4 (.text:MQTTNet_rtcSecs)
                  010184c0    00000014                    : mqtt_common.oem4 (.text:MQTT_packetAckWlistAppend)
                  010184d4    00000014                    : mqtt_common.oem4 (.text:MQTT_packetReset)
                  010184e8    00000014     drivers_cc32xx.aem4 : PowerCC32XX.oem4 (.text:Power_getDependencyCount)
                  010184fc    00000014                         : SPI.oem4 (.text:SPI_Params_init)
                  01018510    00000014     slnetsock_release.a : slnetsock.oem4 (.text:SlNetSock_sdsClrAll)
                  01018524    00000014     mqtt_release.a : client_core.oem4 (.text:ack1WlRmfree)
                  01018538    00000014     freertos_builds_CC3220SF_LAUNCHXL_release_ccs.lib : tasks.obj (.text:prvDeleteTCB)
                  0101854c    00000014                                                       : pthread.obj (.text:pthread_attr_setstacksize)
                  01018560    00000014                                                       : pthread_mutex.obj (.text:pthread_mutex_lock)
                  01018574    00000014                                                       : pthread.obj (.text:pthread_self)
                  01018588    00000014     drivers_cc32xx.aem4 : UARTCC32XX.oem4 (.text:releasePowerConstraint)
                  0101859c    00000014     freertos_builds_CC3220SF_LAUNCHXL_release_ccs.lib : semaphore.obj (.text:sem_destroy)
                  010185b0    00000014     rtsv7M4_T_le_eabi.lib : strcpy.c.obj (.text:strcpy)
                  010185c4    00000014                           : strlen.c.obj (.text:strlen)
                  010185d8    00000014     mqtt_release.a : client_core.oem4 (.text:txPartBufP)
                  010185ec    00000014                    : client_core.oem4 (.text:txPartReset)
                  01018600    00000014     freertos_builds_CC3220SF_LAUNCHXL_release_ccs.lib : PowerCC32XX_freertos.obj (.text:vPortSuppressTicksAndSleep)
                  01018614    00000014                                                       : tasks.obj (.text:xTaskGetCurrentTaskHandle)
                  01018628    00000014                                                       : tasks.obj (.text:xTaskGetTickCount)
                  0101863c    00000012                                                       : HwiPCC32XX_freertos.obj (.text:HwiP_delete)
                  0101864e    00000012     drivers_cc32xx.aem4 : RingBuf.oem4 (.text:RingBuf_construct)
                  01018660    00000012     slnetifwifi.a : slnetifwifi.obj (.text:SlNetIfWifi_close)
                  01018672    00000012     driverlib.a : timer.obj (.text:TimerIntClear)
                  01018684    00000012     rtsv7M4_T_le_eabi.lib : sscanf.c.obj (.text:_inpchar)
                  01018696    00000012     mqtt_release.a : client_core.oem4 (.text:mqpDoNotReportCor)
                  010186a8    00000012                    : client_core.oem4 (.text:sessionResume)
                  010186ba    00000012     rtsv7M4_T_le_eabi.lib : wcslen.c.obj (.text:wcslen)
                  010186cc    00000010     Board.obj (.text:Board_init)
                  010186dc    00000010     freertos_builds_CC3220SF_LAUNCHXL_release_ccs.lib : ClockP_freertos.obj (.text:ClockP_getSystemTickPeriod)
                  010186ec    00000010     drivers_cc32xx.aem4 : I2C.oem4 (.text:I2C_Params_init)
                  010186fc    00000010     slnetsock_release.a : slnetsock.oem4 (.text:SlNetSock_secAttribCreate)
                  0101870c    00000010     driverlib.a : systick.obj (.text:SysTickDisable)
                  0101871c    00000010                 : systick.obj (.text:SysTickEnable)
                  0101872c    00000010     drivers_cc32xx.aem4 : Timer.oem4 (.text:Timer_Params_init)
                  0101873c    00000010     simplelink.a : driver.obj (.text:_SlDrvDispatchHttpServerEvents)
                  0101874c    00000010                  : driver.obj (.text:_SlDrvDispatchNetAppRequestEvents)
                  0101875c    00000010                  : driver.obj (.text:_SlDrvIsSpawnOwnGlobalLock)
                  0101876c    00000010     Board.obj (.text:dmaErrorFxn)
                  0101877c    00000010     mqtt_release.a : client_core.oem4 (.text:isConnected)
                  0101878c    00000010                    : client_core.oem4 (.text:isValidUTF8String)
                  0101879c    00000010                    : client_core.oem4 (.text:mqpFree)
                  010187ac    00000010     drivers_cc32xx.aem4 : UARTCC32XX.oem4 (.text:readBlockingTimeout)
                  010187bc    00000010     freertos_builds_CC3220SF_LAUNCHXL_release_ccs.lib : list.obj (.text:vListInitialiseItem)
                  010187cc    00000010                                                       : tasks.obj (.text:vTaskSuspendAll)
                  010187dc    0000000e     mqtt_release.a : mqttclient.oem4 (.text:MQTTClient_subscribe)
                  010187ea    0000000e     drivers_cc32xx.aem4 : PowerCC32XX.oem4 (.text:Power_getTransitionLatency)
                  010187f8    0000000e                         : RingBuf.oem4 (.text:RingBuf_isFull)
                  01018806    0000000e     simplelink.a : driver.obj (.text:_SlDrvResetCmdExt)
                  01018814    0000000e     mqtt_release.a : mqttclient.oem4 (.text:_sl_ExtLib_AwaitedAckSet)
                  01018822    0000000e                    : client_core.oem4 (.text:connSentStateRx)
                  01018830    0000000e     rtsv7M4_T_le_eabi.lib : copy_decompress_none.c.obj (.text:decompress:none:__TI_decompress_none)
                  0101883e    0000000e     drivers_cc32xx.aem4 : SPICC32XXDMA.oem4 (.text:postNotifyFxn)
                  0101884c    0000000e     simplelink.a : cc_pal.obj (.text:spi_Close)
                  0101885a    0000000c     driverlib.a : cpu.obj (.text:CPUwfi)
                  01018866    0000000c     freertos_builds_CC3220SF_LAUNCHXL_release_ccs.lib : HwiPCC32XX_freertos.obj (.text:HwiP_clearInterrupt)
                  01018872    0000000c                                                       : HwiPCC32XX_freertos.obj (.text:HwiP_disableInterrupt)
                  0101887e    0000000c                                                       : HwiPCC32XX_freertos.obj (.text:HwiP_enableInterrupt)
                  0101888a    0000000c     mqtt_release.a : client_core.oem4 (.text:MQTTClientCore_sendConnectMsg)
                  01018896    0000000c                    : mqtt_common.oem4 (.text:MQTT_secureConnStructInit)
                  010188a2    00000002     --HOLE-- [fill = 0]
                  010188a4    0000000c     network_if.obj (.text:Network_IF_ResetMCUStateMachine)
                  010188b0    0000000c     simplelink.a : cc_pal.obj (.text:NwpMaskInterrupt)
                  010188bc    0000000c                  : cc_pal.obj (.text:NwpUnMaskInterrupt)
                  010188c8    0000000c     drivers_cc32xx.aem4 : PowerCC32XX.oem4 (.text:Power_getConstraintMask)
                  010188d4    0000000c     freertos_builds_CC3220SF_LAUNCHXL_release_ccs.lib : SemaphoreP_freertos.obj (.text:SemaphoreP_delete)
                  010188e0    0000000c     network_if.obj (.text:SimpleLinkHttpServerEventHandler)
                  010188ec    0000000c     network_if.obj (.text:SimpleLinkNetAppRequestEventHandler)
                  010188f8    0000000c     simplelink.a : device.obj (.text:_SlDeviceResetRequestInitCompletedCB)
                  01018904    0000000c     mqtt_release.a : client_core.oem4 (.text:_txPartReset)
                  01018910    0000000c     rtsv7M4_T_le_eabi.lib : s_copysign.c.obj (.text:copysign)
                  0101891c    0000000c                           : copy_zero_init.c.obj (.text:decompress:ZI:__TI_zero_init)
                  01018928    0000000c     drivers_cc32xx.aem4 : I2CCC32XX.oem4 (.text:postNotify)
                  01018934    0000000c                         : TimerCC32XX.oem4 (.text:postNotifyFxn)
                  01018940    0000000c                         : UARTCC32XX.oem4 (.text:postNotifyFxn)
                  0101894c    0000000c     driverlib.a : udma.obj (.text:uDMAErrorStatusClear)
                  01018958    0000000c                 : udma.obj (.text:uDMAErrorStatusGet)
                  01018964    0000000c     freertos_builds_CC3220SF_LAUNCHXL_release_ccs.lib : tasks.obj (.text:vTaskMissedYield)
                  01018970    0000000a     drivers_cc32xx.aem4 : ADC.oem4 (.text:ADC_Params_init)
                  0101897a    0000000a                         : ADC.oem4 (.text:ADC_convert)
                  01018984    0000000a                         : ADC.oem4 (.text:ADC_convertToMicroVolts)
                  0101898e    0000000a                         : I2C.oem4 (.text:I2C_transfer)
                  01018998    0000000a     driverlib.a : interrupt.obj (.text:IntMasterEnable)
                  010189a2    0000000a     drivers_cc32xx.aem4 : SPI.oem4 (.text:SPI_close)
                  010189ac    0000000a                         : SPI.oem4 (.text:SPI_transfer)
                  010189b6    0000000a     network_if.obj (.text:SimpleLinkFatalErrorEventHandler)
                  010189c0    0000000a     network_if.obj (.text:SimpleLinkGeneralEventHandler)
                  010189ca    0000000a     network_if.obj (.text:SimpleLinkNetAppRequestMemFreeEventHandler)
                  010189d4    0000000a     network_if.obj (.text:SimpleLinkSockEventHandler)
                  010189de    0000000a     drivers_cc32xx.aem4 : Timer.oem4 (.text:Timer_start)
                  010189e8    0000000a                         : UART.oem4 (.text:UART_read)
                  010189f2    0000000a     simplelink.a : device.obj (.text:sl_Task)
                  010189fc    0000000a     main_freertos.obj (.text:vApplicationStackOverflowHook)
                  01018a06    00000008     drivers_cc32xx.aem4 : ADCCC32XX.oem4 (.text:ADCCC32XX_init)
                  01018a0e    00000008     freertos_builds_CC3220SF_LAUNCHXL_release_ccs.lib : ClockP_freertos.obj (.text:ClockP_getSystemTicks)
                  01018a16    00000008     drivers_cc32xx.aem4 : I2CCC32XX.oem4 (.text:I2CCC32XX_blockingCallback)
                  01018a1e    00000008     mqtt_release.a : client_core.oem4 (.text:MQTTClientCore_sendSubMsg)
                  01018a26    00000008                    : mqtt_net_func.oem4 (.text:MQTTNet_tcpSend)
                  01018a2e    00000008     driverlib.a : prcm.obj (.text:PRCMSleepEnter)
                  01018a36    00000008     simplelink.a : cc_pal.obj (.text:TimerGetCurrentTimestamp)
                  01018a3e    00000008     rtsv7M4_T_le_eabi.lib : sscanf.c.obj (.text:_uninpchar)
                  01018a46    00000008     drivers_cc32xx.aem4 : SPICC32XXDMA.oem4 (.text:blockingTransferCallback)
                  01018a4e    00000008                         : UARTCC32XX.oem4 (.text:readSemCallback)
                  01018a56    00000008     mqtt_release.a : client_core.oem4 (.text:txPartAddup)
                  01018a5e    00000008     drivers_cc32xx.aem4 : UARTCC32XX.oem4 (.text:writeSemCallback)
                  01018a66    00000006                         : ADCCC32XX.oem4 (.text:ADCCC32XX_control)
                  01018a6c    00000006                         : I2CCC32XX.oem4 (.text:I2CCC32XX_control)
                  01018a72    00000006                         : SPICC32XXDMA.oem4 (.text:SPICC32XXDMA_control)
                  01018a78    00000006                         : TimerCC32XX.oem4 (.text:TimerCC32XX_control)
                  01018a7e    00000006     driverlib.a : utils.obj (.text:UtilsDelay)
                  01018a84    00000006     mqtt_release.a : client_core.oem4 (.text:ack2MsgIdLogup)
                  01018a8a    00000006                    : client_core.oem4 (.text:qos2PubRxIsDone)
                  01018a90    00000006                    : client_core.oem4 (.text:qos2PubRxLogup)
                  01018a96    00000006                    : client_core.oem4 (.text:qos2PubRxUnlog)
                  01018a9c    00000004     drivers_cc32xx.aem4 : SPICC32XXDMA.oem4 (.text:SPICC32XXDMA_init)
                  01018aa0    00000004     slnetsock_release.a : slnetif.oem4 (.text:SlNetIf_init)
                  01018aa4    00000004                         : slnetutils.oem4 (.text:SlNetUtil_init)
                  01018aa8    00000004     rtsv7M4_T_le_eabi.lib : pre_init.c.obj (.text:_system_pre_init)
                  01018aac    00000004                           : exit.c.obj (.text:abort:abort)
                  01018ab0    00000004     mqtt_release.a : mqttclient.oem4 (.text:mutexLockup)
                  01018ab4    00000004                    : mqttclient.oem4 (.text:mutexUnlock)

.const     0    01018ab8    00000b8e     
                  01018ab8    00000101     rtsv7M4_T_le_eabi.lib : ctype.c.obj (.const:.string:_ctypes_)
                  01018bb9    00000003     mqtt_release.a : mqttclient.oem4 (.const:.string:$P$T0$1)
                  01018bbc    00000100     driverlib.a : pin.obj (.const:g_ulPinToPadMap)
                  01018cbc    000000d4                 : interrupt.obj (.const:g_pulRegs)
                  01018d90    000000c8     rtsv7M4_T_le_eabi.lib : strtod.c.obj (.const:$O1$$)
                  01018e58    000000a8     driverlib.a : prcm.obj (.const:PRCM_PeriphRegsList)
                  01018f00    00000078     Board.obj (.const:spiCC32XXDMAHWAttrs)
                  01018f78    00000070     mqtt_client_app.obj (.const:.string)
                  01018fe8    00000070     simplelink.a : driver.obj (.const:OpcodeTranslateTable)
                  01019058    00000050                  : driver.obj (.const:_SlActionLookupTable)
                  010190a8    00000050     sensors_state.obj (.const:correspond)
                  010190f8    00000040     Board.obj (.const:PowerCC32XX_config)
                  01019138    00000028     drivers_cc32xx.aem4 : UARTCC32XX.oem4 (.const:UARTCC32XX_fxnTable)
                  01019160    00000028     sensors_state.obj (.const:lookup)
                  01019188    00000024     drivers_cc32xx.aem4 : UART.oem4 (.const:UART_defaultParams)
                  010191ac    00000024     Board.obj (.const:uartCC32XXHWAttrs0)
                  010191d0    00000021     drivers_cc32xx.aem4 : GPIOCC32XX.oem4 (.const:.string:pinTable)
                  010191f1    00000003     mqtt_client_app.obj (.const:.string:qos)
                  010191f4    00000020     simplelink.a : driver.obj (.const:RxMsgClassLUT)
                  01019214    00000020     drivers_cc32xx.aem4 : SPI.oem4 (.const:SPI_defaultParams)
                  01019234    00000020     simplelink.a : device.obj (.const:StartResponseLUT)
                  01019254    00000020     drivers_cc32xx.aem4 : UARTCC32XX.oem4 (.const:staticFxnTable)
                  01019274    00000020     Board.obj (.const:timerCC32XXHWAttrs)
                  01019294    0000001c     drivers_cc32xx.aem4 : TimerCC32XX.oem4 (.const:TimerCC32XX_fxnTable)
                  010192b0    00000018                         : ADCCC32XX.oem4 (.const:ADCCC32XX_fxnTable)
                  010192c8    00000018                         : I2CCC32XX.oem4 (.const:I2CCC32XX_fxnTable)
                  010192e0    00000018                         : SPICC32XXDMA.oem4 (.const:SPICC32XXDMA_fxnTable)
                  010192f8    00000018     Board.obj (.const:SPI_config)
                  01019310    00000018     Board.obj (.const:Timer_config)
                  01019328    00000018     driverlib.a : interrupt.obj (.const:g_pulDisRegs)
                  01019340    00000018                 : interrupt.obj (.const:g_pulEnRegs)
                  01019358    00000018                 : interrupt.obj (.const:g_pulUnpendRegs)
                  01019370    00000014     simplelink.a : cc_pal.obj (.const:$P$T0$1)
                  01019384    00000014                  : device.obj (.const:$P$T0$1)
                  01019398    00000014                  : driver.obj (.const:$P$T0$1)
                  010193ac    00000014                  : fs.obj (.const:$P$T0$1)
                  010193c0    00000014                  : cc_pal.obj (.const:$P$T1$2)
                  010193d4    00000014                  : driver.obj (.const:$P$T2$3)
                  010193e8    00000014     Board.obj (.const:GPIOCC32XX_config)
                  010193fc    00000014     slnetifwifi.a : slnetifwifi.obj (.const:StartSecOptName)
                  01019410    00000014     drivers_cc32xx.aem4 : GPIOCC32XX.oem4 (.const:gpioBaseAddresses)
                  01019424    00000014                         : UARTCC32XX.oem4 (.const:parityType)
                  01019438    00000014                         : GPIOCC32XX.oem4 (.const:powerResources)
                  0101944c    00000010     rtsv7M4_T_le_eabi.lib : _scanfi.c.obj (.const:$O1$$)
                  0101945c    00000010     mqtt_release.a : mqtt_net_func.oem4 (.const:$P$T0$1)
                  0101946c    00000010     network_if.obj (.const:$P$T0$1)
                  0101947c    00000010     mqtt_release.a : mqtt_net_func.oem4 (.const:$P$T1$2)
                  0101948c    00000010     drivers_cc32xx.aem4 : I2C.oem4 (.const:I2C_defaultParams)
                  0101949c    00000010     simplelink.a : sl_socket.obj (.const:_SlCtrlSockAddr)
                  010194ac    00000010                  : sl_socket.obj (.const:_SlCtrlSockRelease)
                  010194bc    00000010     drivers_cc32xx.aem4 : UARTCC32XX.oem4 (.const:dataLength)
                  010194cc    00000010     Board.obj (.const:i2cCC32XXHWAttrs)
                  010194dc    00000010     slnetifwifi.a : slnetifwifi.obj (.const:socketType)
                  010194ec    0000000c     sensors_state.obj (.const:$P$T0$1)
                  010194f8    0000000c     Board.obj (.const:ADC_config)
                  01019504    0000000c     Board.obj (.const:I2C_config)
                  01019510    0000000c     Board.obj (.const:UART_config)
                  0101951c    0000000c     drivers_cc32xx.aem4 : Timer.oem4 (.const:defaultParams)
                  01019528    0000000c                         : SPICC32XXDMA.oem4 (.const:dmaNullConfig)
                  01019534    0000000c                         : SPICC32XXDMA.oem4 (.const:dmaRxConfig)
                  01019540    0000000c                         : SPICC32XXDMA.oem4 (.const:dmaTxConfig)
                  0101954c    0000000c     mqtt_client_app.obj (.const:topic)
                  01019558    0000000c     Board.obj (.const:udmaCC3220SHWAttrs)
                  01019564    00000008     drivers_cc32xx.aem4 : ADC.oem4 (.const:ADC_defaultParams)
                  0101956c    00000008     Board.obj (.const:UDMACC32XX_config)
                  01019574    00000008     drivers_cc32xx.aem4 : I2CCC32XX.oem4 (.const:bitRate)
                  0101957c    00000008     freertos_builds_CC3220SF_LAUNCHXL_release_ccs.lib : port.obj (.const)
                  01019584    00000008     simplelink.a : driver.obj (.const:g_H2NCnysPattern)
                  0101958c    00000008                  : driver.obj (.const:g_H2NSyncPattern)
                  01019594    00000008     drivers_cc32xx.aem4 : SPICC32XXDMA.oem4 (.const:mode)
                  0101959c    00000008                         : GPIOCC32XX.oem4 (.const:outPinTypes)
                  010195a4    00000008                         : UARTCC32XX.oem4 (.const:stopBits)
                  010195ac    00000007     Board.obj (.const)
                  010195b3    00000006     drivers_cc32xx.aem4 : GPIOCC32XX.oem4 (.const:.string:interruptType)
                  010195b9    00000001     --HOLE-- [fill = 0]
                  010195ba    00000006                         : GPIOCC32XX.oem4 (.const:inPinTypes)
                  010195c0    00000006                         : GPIOCC32XX.oem4 (.const:outPinStrengths)
                  010195c6    00000005     mqtt_release.a : client_core.oem4 (.const:.string:$P$T2$2)
                  010195cb    00000001     --HOLE-- [fill = 0]
                  010195cc    00000004     simplelink.a : sl_socket.obj (.const:$P$T0$1)
                  010195d0    00000004                  : wlan.obj (.const:$P$T0$1)
                  010195d4    00000004                  : sl_socket.obj (.const:$P$T1$2)
                  010195d8    00000004                  : sl_socket.obj (.const:$P$T2$3)
                  010195dc    00000004     mqtt_release.a : client_core.oem4 (.const:.string:$P$T1$1)
                  010195e0    00000004     drivers_cc32xx.aem4 : GPIOCC32XX.oem4 (.const:.string:portInterruptIds)
                  010195e4    00000004     simplelink.a : sl_socket.obj (.const:_SlAcceptCmdCtrl)
                  010195e8    00000004                  : fs.obj (.const:_SlFsCloseCmdCtrl)
                  010195ec    00000004                  : fs.obj (.const:_SlFsOpenCmdCtrl)
                  010195f0    00000004                  : fs.obj (.const:_SlFsWriteCmdCtrl)
                  010195f4    00000004                  : netapp.obj (.const:_SlGetHostByNameCtrl)
                  010195f8    00000004                  : sl_socket.obj (.const:_SlGetSockOptCmdCtrl)
                  010195fc    00000004                  : sl_socket.obj (.const:_SlListenCmdCtrl)
                  01019600    00000004                  : netapp.obj (.const:_SlNetAppSendResponseCmdCtrl)
                  01019604    00000004                  : netapp.obj (.const:_SlNetAppSendTokenValueCmdCtrl)
                  01019608    00000004                  : netcfg.obj (.const:_SlNetCfgGetCmdCtrl)
                  0101960c    00000004                  : sl_socket.obj (.const:_SlRecvCmdCtrl)
                  01019610    00000004                  : sl_socket.obj (.const:_SlRecvfomCmdCtrl)
                  01019614    00000004                  : sl_socket.obj (.const:_SlSelectCmdCtrl)
                  01019618    00000004                  : sl_socket.obj (.const:_SlSendCmdCtrl)
                  0101961c    00000004                  : sl_socket.obj (.const:_SlSetSockOptCmdCtrl)
                  01019620    00000004                  : sl_socket.obj (.const:_SlSockCloseCmdCtrl)
                  01019624    00000004                  : sl_socket.obj (.const:_SlSockSocketCmdCtrl)
                  01019628    00000004                  : device.obj (.const:_SlStopCmdCtrl)
                  0101962c    00000004                  : wlan.obj (.const:_SlWlanCfgGetCmdCtrl)
                  01019630    00000004                  : wlan.obj (.const:_SlWlanSetModeCmdCtrl)
                  01019634    00000004     Board.obj (.const:adcCC32XXHWAttrs)
                  01019638    00000004     freertos_builds_CC3220SF_LAUNCHXL_release_ccs.lib : pthread.obj (.const)
                  0101963c    00000003     mqtt_release.a : mqttclient.oem4 (.const:MQTTClient_qos)
                  0101963f    00000002                    : client_core.oem4 (.const:.string:MQTTClientCore_loopData)
                  01019641    00000003     --HOLE-- [fill = 0]
                  01019644    00000002     freertos_builds_CC3220SF_LAUNCHXL_release_ccs.lib : pthread.obj (.const:.string)

.cinit     0    01019648    000001c8     
                  01019648    000001a1     (.cinit..data.load) [load image, compression = lzss]
                  010197e9    00000003     --HOLE-- [fill = 0]
                  010197ec    0000000c     (__TI_handler_table)
                  010197f8    00000008     (.cinit..bss.load) [load image, compression = zero_init]
                  01019800    00000010     (__TI_cinit_table)

.init_array 
*          0    01000800    00000000     UNINITIALIZED

.ramVecs   0    20000000    0000030c     NOLOAD SECTION
                  20000000    0000030c     freertos_builds_CC3220SF_LAUNCHXL_release_ccs.lib : startup_cc32xx_ccs.obj (.ramVecs)

.bss       0    20000400    00021a35     UNINITIALIZED
                  20000400    00020000     freertos_builds_CC3220SF_LAUNCHXL_release_ccs.lib : heap_4.obj (.bss:ucHeap)
                  20020400    00000800     mqtt_release.a : mqttclient.oem4 (.bss:MQTTClient_buffer)
                  20020c00    00000400     Board.obj (.bss:dmaControlTable)
                  20021000    000003fc     (.common:g_CB)
                  200213fc    000002b0     (.common:clients)
                  200216ac    0000012c     (.common:PowerCC32XX_contextSave)
                  200217d8    000000d0     mqtt_release.a : mqttclient.oem4 (.bss:MQTTClient_ctx)
                  200218a8    000000c8     freertos_builds_CC3220SF_LAUNCHXL_release_ccs.lib : tasks.obj (.bss:pxReadyTasksLists)
                  20021970    00000088     (.common:spiCC32XXDMAObjects)
                  200219f8    00000084     (.common:uartCC32XXObjects0)
                  20021a7c    00000080     slnetsock_release.a : slnetsock.oem4 (.bss:VirtualSockets)
                  20021afc    00000068     (.common:timerCC32XXObjects)
                  20021b64    00000050     (.common:i2cCC32XXObjects)
                  20021bb4    00000048     mqtt_release.a : mqttclient.oem4 (.bss:MQTTClient_packet)
                  20021bfc    0000002c     slnetsock_release.a : slnetsock.oem4 (.bss:VirtualSocketMutex)
                  20021c28    0000002c     (.common:GlobalLockObj)
                  20021c54    00000028     (.common:g_SlInternalSpawnCB)
                  20021c7c    00000024     (.common:g_ucConnectionSSID)
                  20021ca0    00000020     drivers_cc32xx.aem4 : GPIOCC32XX.oem4 (.bss:gpioCallbackInfo)
                  20021cc0    00000020     Board.obj (.bss:uartCC32XXRingBuffer0)
                  20021ce0    00000018     mqtt_release.a : client_core.oem4 (.bss:MQTTClientCore_recvHvec)
                  20021cf8    00000014     drivers_cc32xx.aem4 : UDMACC32XX.oem4 (.bss:postNotifyObj)
                  20021d0c    00000014                         : GPIOCC32XX.oem4 (.bss:powerNotifyObj)
                  20021d20    00000014     freertos_builds_CC3220SF_LAUNCHXL_release_ccs.lib : timers.obj (.bss:xActiveTimerList1)
                  20021d34    00000014                                                       : timers.obj (.bss:xActiveTimerList2)
                  20021d48    00000014                                                       : tasks.obj (.bss:xDelayedTaskList1)
                  20021d5c    00000014                                                       : tasks.obj (.bss:xDelayedTaskList2)
                  20021d70    00000014                                                       : tasks.obj (.bss:xPendingReadyList)
                  20021d84    00000014                                                       : tasks.obj (.bss:xSuspendedTaskList)
                  20021d98    00000014                                                       : tasks.obj (.bss:xTasksWaitingTermination)
                  20021dac    00000010     (.common:MQTTClient_Lib_CB)
                  20021dbc    0000000c     (.common:DeviceCB)
                  20021dc8    0000000c     (.common:MqttClientExmple_params)
                  20021dd4    0000000c     (.common:Msg)
                  20021de0    00000008                                                       : tasks.obj (.bss)
                  20021de8    00000008                                                       : timers.obj (.bss)
                  20021df0    00000008                                                       : heap_4.obj (.bss:xStart)
                  20021df8    00000008     (.common:g_ucConnectionBSSID)
                  20021e00    00000008     (.common:spiCC32XXSDMAscratchBuf)
                  20021e08    00000008     (.common:udmaCC3220SObject)
                  20021e10    00000004     drivers_cc32xx.aem4 : GPIOCC32XX.oem4 (.bss)
                  20021e14    00000004     mqtt_client_app.obj (.bss)
                  20021e18    00000004     drivers_cc32xx.aem4 : TimerCC32XX.oem4 (.bss:timerState)
                  20021e1c    00000004     (.common:adcCC32XXObjects)
                  20021e20    00000004     (.common:mqtt_queue)
                  20021e24    00000004     (.common:pixyQ)
                  20021e28    00000004     (.common:sensor_queue)
                  20021e2c    00000004     (.common:stat_queue)
                  20021e30    00000002     (.common:MQTTClient_waitSecs)
                  20021e32    00000002     (.common:g_usConnectIndex)
                  20021e34    00000001     (.common:RxIrqCnt)

.data      0    20021e38    00000cd0     UNINITIALIZED
                  20021e38    00000800     freertos_builds_CC3220SF_LAUNCHXL_release_ccs.lib : HwiPCC32XX_freertos.obj (.data:HwiP_dispatchTable)
                  20022638    0000016c     drivers_cc32xx.aem4 : PowerCC32XX.oem4 (.data:PowerCC32XX_module)
                  200227a4    000000f8     Board.obj (.data:parkInfo)
                  2002289c    00000058     slnetifwifi.a : slnetifwifi.obj (.data:SlNetIfConfigWifi)
                  200228f4    00000035     mqtt_release.a : client_core.oem4 (.data)
                  20022929    00000001     drivers_cc32xx.aem4 : ADC.oem4 (.data)
                  2002292a    00000001                         : I2C.oem4 (.data)
                  2002292b    00000001                         : SPI.oem4 (.data)
                  2002292c    00000034     freertos_builds_CC3220SF_LAUNCHXL_release_ccs.lib : tasks.obj (.data)
                  20022960    00000028     mqtt_release.a : mqttclient.oem4 (.data:MQTTClient_net)
                  20022988    00000024     simplelink.a : eventreg.obj (.data:g_LibsEvents)
                  200229ac    00000024                  : eventreg.obj (.data:g_UserEvents)
                  200229d0    00000018     mqtt_client_app.obj (.data:Mqtt_ClientCtx)
                  200229e8    00000018     freertos_builds_CC3220SF_LAUNCHXL_release_ccs.lib : port.obj (.data)
                  20022a00    00000018     Board.obj (.data:gpioPinConfigs)
                  20022a18    00000014     freertos_builds_CC3220SF_LAUNCHXL_release_ccs.lib : pthread.obj (.data:defaultPthreadAttrs)
                  20022a2c    00000010                                                       : heap_4.obj (.data)
                  20022a3c    0000000d     mqtt_client_app.obj (.data:ClientId)
                  20022a49    00000001     drivers_cc32xx.aem4 : Timer.oem4 (.data)
                  20022a4a    00000001                         : UART.oem4 (.data)
                  20022a4b    00000001     slnetsock_release.a : slnetsock.oem4 (.data)
                  20022a4c    0000000c     mqtt_client_app.obj (.data:SecurityParams)
                  20022a58    0000000c     freertos_builds_CC3220SF_LAUNCHXL_release_ccs.lib : pthread_mutex.obj (.data:defAttrs)
                  20022a64    0000000c                                                       : timers.obj (.data)
                  20022a70    0000000c     network_if.obj (.data)
                  20022a7c    0000000c     simplelink.a : driver.obj (.data)
                  20022a88    0000000c     mqtt_client_app.obj (.data:will_param)
                  20022a94    00000009     mqtt_release.a : client_core.oem4 (.data:MQTTClientCore_mqtt310)
                  20022a9d    00000003     --HOLE--
                  20022aa0    00000009     drivers_cc32xx.aem4 : GPIOCC32XX.oem4 (.data)
                  20022aa9    00000003     --HOLE--
                  20022aac    00000009     mqtt_release.a : mqttclient.oem4 (.data)
                  20022ab5    00000003     --HOLE--
                  20022ab8    00000008                    : mqttclient.oem4 (.data:MQTTClient_clientCfg)
                  20022ac0    00000008     drivers_cc32xx.aem4 : UDMACC32XX.oem4 (.data)
                  20022ac8    00000008     mqtt_client_app.obj (.data)
                  20022ad0    00000008     freertos_builds_CC3220SF_LAUNCHXL_release_ccs.lib : clock.obj (.data:refTS)
                  20022ad8    00000008                                                       : clock.obj (.data:setTS)
                  20022ae0    00000008     drivers_cc32xx.aem4 : ADCCC32XX.oem4 (.data:state)
                  20022ae8    00000007     mqtt_release.a : client_core.oem4 (.data:MQTTClientCore_mqtt311)
                  20022aef    00000001     --HOLE--
                  20022af0    00000004                    : mqttclient.oem4 (.data:MQTTClient_connectCfg)
                  20022af4    00000004     freertos_builds_CC3220SF_LAUNCHXL_release_ccs.lib : ClockP_freertos.obj (.data)
                  20022af8    00000004                                                       : HwiPCC32XX_freertos.obj (.data)
                  20022afc    00000004                                                       : PowerCC32XX_freertos.obj (.data)
                  20022b00    00000004     simplelink.a : cc_pal.obj (.data)
                  20022b04    00000004     slnetsock_release.a : slnetif.oem4 (.data)

.stack     0    2003fc00    00000400     UNINITIALIZED
                  2003fc00    00000004     rtsv7M4_T_le_eabi.lib : boot_cortex_m.c.obj (.stack)
                  2003fc04    000003fc     --HOLE--

.binit     0    01000000    00000000     

MODULE SUMMARY

       Module                       code    ro data   rw data
       ------                       ----    -------   -------
    .\
       sensors_state.obj            2404    132       0      
       mqtt_client_app.obj          2276    127       85     
       client_cbs.obj               2250    0         16     
       network_if.obj               996     16        58     
       ultraSonar_main.obj          404     0         0      
       statisticsTask.obj           290     0         0      
       main_freertos.obj            280     0         0      
       mqtt_queue.obj               280     0         0      
       pixy_queue.obj               256     0         0      
       timer_pixy.obj               220     0         0      
       pixy_main.obj                182     0         0      
       sensors_queue.obj            172     0         0      
       debug.obj                    128     0         0      
       process_main.obj             126     0         0      
    +--+----------------------------+-------+---------+---------+
       Total:                       10264   275       159    
                                                             
    .\syscfg\
       Board.obj                    34      403       1800   
    +--+----------------------------+-------+---------+---------+
       Total:                       34      403       1800   
                                                             
    C:/Users/jiez/workspace_v9_2/freertos_builds_CC3220SF_LAUNCHXL_release_ccs/Debug/freertos_builds_CC3220SF_LAUNCHXL_release_ccs.lib
       heap_4.obj                   888     0         131096 
       tasks.obj                    4540    0         360    
       queue.obj                    3408    0         0      
       HwiPCC32XX_freertos.obj      368     0         2052   
       timers.obj                   1562    0         60     
       startup_cc32xx_ccs.obj       106     64        780    
       pthread.obj                  798     6         20     
       port.obj                     700     8         24     
       ClockP_freertos.obj          654     0         4      
       clock.obj                    492     0         16     
       PowerCC32XX_freertos.obj     454     0         4      
       pthread_mutex.obj            430     0         12     
       semaphore.obj                388     0         0      
       list.obj                     298     0         0      
       SemaphoreP_freertos.obj      250     0         0      
       portasm.obj                  186     0         0      
       memory.obj                   182     0         0      
       sleep.obj                    132     0         0      
       PTLS.obj                     70      0         0      
       aeabi_portable.obj           34      0         0      
    +--+----------------------------+-------+---------+---------+
       Total:                       15940   78        134428 
                                                             
    C:/ti/simplelink_cc32xx_sdk_3_20_00_06/source/ti/devices/cc32xx/driverlib/ccs/Release/driverlib.a
       prcm.obj                     1924    168       0      
       interrupt.obj                608     284       0      
       pin.obj                      280     256       0      
       timer.obj                    264     0         0      
       flash.obj                    72      0         0      
       uart.obj                     48      0         0      
       cpu.obj                      32      0         0      
       systick.obj                  32      0         0      
       udma.obj                     24      0         0      
       utils.obj                    6       0         0      
    +--+----------------------------+-------+---------+---------+
       Total:                       3290    708       0      
                                                             
    C:/ti/simplelink_cc32xx_sdk_3_20_00_06/source/ti/drivers/lib/drivers_cc32xx.aem4
       UARTCC32XX.oem4              3442    116       0      
       PowerCC32XX.oem4             2322    0         664    
       SPICC32XXDMA.oem4            2118    68        0      
       GPIOCC32XX.oem4              1196    103       65     
       I2CCC32XX.oem4               1288    32        0      
       TimerCC32XX.oem4             994     28        4      
       ADCCC32XX.oem4               410     24        8      
       UDMACC32XX.oem4              270     0         28     
       SPI.oem4                     172     32        1      
       RingBuf.oem4                 198     0         0      
       UART.oem4                    142     36        1      
       I2C.oem4                     158     16        1      
       ADC.oem4                     162     8         1      
       Timer.oem4                   158     12        1      
       PowerCC32XX_asm.oem4         150     0         0      
       List.oem4                    76      0         0      
    +--+----------------------------+-------+---------+---------+
       Total:                       13256   475       774    
                                                             
    C:/ti/simplelink_cc32xx_sdk_3_20_00_06/source/ti/drivers/net/wifi/ccs/rtos/simplelink.a
       driver.obj                   12620   280       1077   
       sl_socket.obj                7038    84        12     
       netapp.obj                   2078    12        0      
       device.obj                   1518    56        12     
       cc_pal.obj                   1052    40        4      
       fs.obj                       924     32        0      
       eventreg.obj                 880     0         72     
       wlan.obj                     932     12        0      
       spawn.obj                    264     0         40     
       netcfg.obj                   192     4         0      
       netutil.obj                  180     0         0      
       flowcont.obj                 40      0         0      
    +--+----------------------------+-------+---------+---------+
       Total:                       27718   520       1217   
                                                             
    C:/ti/simplelink_cc32xx_sdk_3_20_00_06/source/ti/drivers/net/wifi/slnetif/ccs/Release/slnetifwifi.a
       slnetifwifi.obj              1458    36        88     
    +--+----------------------------+-------+---------+---------+
       Total:                       1458    36        88     
                                                             
    C:/ti/simplelink_cc32xx_sdk_3_20_00_06/source/ti/net/lib/ccs/m4/slnetsock_release.a
       slnetsock.oem4               2092    0         173    
       slnetutils.oem4              726     0         0      
       slnetif.oem4                 448     0         4      
    +--+----------------------------+-------+---------+---------+
       Total:                       3266    0         177    
                                                             
    C:/ti/simplelink_cc32xx_sdk_3_20_00_06/source/ti/net/mqtt/lib/ccs/m4/mqtt_release.a
       client_core.oem4             5380    11        781    
       mqttclient.oem4              2120    6         2407   
       mqtt_common.oem4             1458    0         0      
       mqtt_net_func.oem4           1294    32        0      
    +--+----------------------------+-------+---------+---------+
       Total:                       10252   49        3188   
                                                             
    C:\ti\ccs920\ccs\tools\compiler\ti-cgt-arm_18.12.3.LTS\lib\rtsv7M4_T_le_eabi.lib
       _printfi.c.obj               4835    0         0      
       _scanfi.c.obj                2744    16        0      
       strtod.c.obj                 1108    200       0      
       strtoll.c.obj                476     0         0      
       fd_add_t2.asm.obj            438     0         0      
       strtoull.c.obj               348     0         0      
       fd_div_t2.asm.obj            310     0         0      
       strtol.c.obj                 304     0         0      
       strtoul.c.obj                272     0         0      
       fd_cmp_t2.asm.obj            268     0         0      
       ctype.c.obj                  0       257       0      
       fd_mul_t2.asm.obj            252     0         0      
       s_scalbn.c.obj               208     0         0      
       sscanf.c.obj                 186     0         0      
       memcpy_t2.asm.obj            156     0         0      
       ull_div_t2.asm.obj           150     0         0      
       snprintf.c.obj               148     0         0      
       memset_t2.asm.obj            122     0         0      
       fd_tos_t2.asm.obj            110     0         0      
       copy_decompress_lzss.c.obj   104     0         0      
       s_frexp.c.obj                92      0         0      
       ltoa.c.obj                   84      0         0      
       atoi.c.obj                   76      0         0      
       fd_toi_t2.asm.obj            72      0         0      
       autoinit.c.obj               68      0         0      
       fd_tou_t2.asm.obj            68      0         0      
       strncpy.c.obj                54      0         0      
       i_tofd_t2.asm.obj            46      0         0      
       strncmp.c.obj                44      0         0      
       boot_cortex_m.c.obj          36      0         0      
       u_tofd_t2.asm.obj            32      0         0      
       memccpy.c.obj                28      0         0      
       ll_mul_t2.asm.obj            24      0         0      
       strrchr.c.obj                24      0         0      
       strchr.c.obj                 22      0         0      
       strcpy.c.obj                 20      0         0      
       strlen.c.obj                 20      0         0      
       wcslen.c.obj                 18      0         0      
       copy_decompress_none.c.obj   14      0         0      
       copy_zero_init.c.obj         12      0         0      
       s_copysign.c.obj             12      0         0      
       exit.c.obj                   4       0         0      
       pre_init.c.obj               4       0         0      
       div0.asm.obj                 2       0         0      
    +--+----------------------------+-------+---------+---------+
       Total:                       13415   473       0      
                                                             
       Stack:                       0       0         1024   
       Linker Generated:            0       453       0      
    +--+----------------------------+-------+---------+---------+
       Grand Total:                 98893   3470      142855 


LINKER GENERATED COPY TABLES

__TI_cinit_table @ 01019800 records: 2, size/record: 8, table size: 16
	.data: load addr=01019648, load size=000001a1 bytes, run addr=20021e38, run size=00000cd0 bytes, compression=lzss
	.bss: load addr=010197f8, load size=00000008 bytes, run addr=20000400, run size=00021a35 bytes, compression=zero_init


LINKER GENERATED HANDLER TABLE

__TI_handler_table @ 010197ec records: 3, size/record: 4, table size: 12
	index: 0, handler: __TI_decompress_lzss
	index: 1, handler: __TI_decompress_none
	index: 2, handler: __TI_zero_init


GLOBAL SYMBOLS: SORTED ALPHABETICALLY BY Name 

address   name                                      
-------   ----                                      
01012095  ADCCC32XX_close                           
01018a67  ADCCC32XX_control                         
01012dd1  ADCCC32XX_convert                         
01017bfd  ADCCC32XX_convertToMicroVolts             
010192b0  ADCCC32XX_fxnTable                        
01018a07  ADCCC32XX_init                            
0101055d  ADCCC32XX_open                            
01018971  ADC_Params_init                           
010194f8  ADC_config                                
0101897b  ADC_convert                               
01018985  ADC_convertToMicroVolts                   
010195ac  ADC_count                                 
01019564  ADC_defaultParams                         
01015409  ADC_init                                  
01015889  ADC_open                                  
010186cd  Board_init                                
01001d47  Board_initHook                            
01018aad  C$$EXIT                                   
01018471  CPUcpsie                                  
0101885b  CPUwfi                                    
20022a3c  ClientId                                  
0101801d  ClockP_Params_init                        
01015e09  ClockP_callbackFxn                        
0100fb95  ClockP_create                             
01013f19  ClockP_delete                             
01017c1d  ClockP_getCpuFreq                         
010186dd  ClockP_getSystemTickPeriod                
01018a0f  ClockP_getSystemTicks                     
0101833d  ClockP_setTimeout                         
01017e3d  ClockP_start                              
01012e35  ClockP_stop                               
010195ad  CryptoCC32XX_count                        
20021dbc  DeviceCB                                  
01014d05  FlashDisable                              
010193e8  GPIOCC32XX_config                         
01014761  GPIO_enableInt                            
01011dc5  GPIO_hwiIntFxn                            
0100d7f5  GPIO_init                                 
01013451  GPIO_setCallback                          
010068d9  GPIO_setConfig                            
010137e9  GPIO_write                                
20021c28  GlobalLockObj                             
01017e5b  HwiP_Params_init                          
01018867  HwiP_clearInterrupt                       
01013155  HwiP_create                               
0101863d  HwiP_delete                               
01017109  HwiP_disable                              
01018873  HwiP_disableInterrupt                     
01014d4d  HwiP_dispatch                             
20021e38  HwiP_dispatchTable                        
0101887f  HwiP_enableInterrupt                      
010175c9  HwiP_inISR                                
01017c3d  HwiP_restore                              
010119e5  I2CCC32XX_cancel                          
01011445  I2CCC32XX_close                           
01018a6d  I2CCC32XX_control                         
010192c8  I2CCC32XX_fxnTable                        
010066fb  I2CCC32XX_init                            
0100bbad  I2CCC32XX_open                            
010108d3  I2CCC32XX_transfer                        
010186ed  I2C_Params_init                           
01019504  I2C_config                                
010195ae  I2C_count                                 
0101948c  I2C_defaultParams                         
0101544d  I2C_init                                  
01015909  I2C_open                                  
0101898f  I2C_transfer                              
01015949  InitializeAppVariables                    
0100f27d  IntDisable                                
0100f325  IntEnable                                 
01018999  IntMasterEnable                           
01013841  IntPendClear                              
01013f6d  IntPrioritySet                            
01017c5d  IntRegister                               
01017959  IntUnregister                             
01018485  IntVTableBaseSet                          
01017899  List_put                                  
010178bf  List_remove                               
01017e79  MQTTClientCore_alloc                      
01010cc5  MQTTClientCore_createCtx                  
01017e97  MQTTClientCore_ctxRun                     
0100fff1  MQTTClientCore_initLib                    
01016075  MQTTClientCore_registerBuffers            
01015989  MQTTClientCore_registerCtxInfo            
010165d5  MQTTClientCore_registerNetSvc             
01014711  MQTTClientCore_registerWillInfo           
01015491  MQTTClientCore_run                        
0101888b  MQTTClientCore_sendConnectMsg             
01013fc1  MQTTClientCore_sendDisconn                
0101008d  MQTTClientCore_sendPubMsg                 
01018a1f  MQTTClientCore_sendSubMsg                 
20021dac  MQTTClient_Lib_CB                         
20022ab8  MQTTClient_clientCfg                      
20022ab0  MQTTClient_clientContext                  
20022aac  MQTTClient_closeContext                   
01008f2d  MQTTClient_connect                        
20022af0  MQTTClient_connectCfg                     
0100f865  MQTTClient_create                         
010160b1  MQTTClient_disconnect                     
20022ab4  MQTTClient_multiSrvConn                   
20022960  MQTTClient_net                            
01018499  MQTTClient_publish                        
010126d5  MQTTClient_run                            
01014d95  MQTTClient_set                            
010187dd  MQTTClient_subscribe                      
20021e30  MQTTClient_waitSecs                       
01018353  MQTTNet_commClose                         
0100c091  MQTTNet_commOpen                          
01011e3d  MQTTNet_recvFrom                          
010184ad  MQTTNet_rtcSecs                           
010128f1  MQTTNet_sendTo                            
01012109  MQTTNet_tcpAccept                         
010134ad  MQTTNet_tcpListen                         
010154d5  MQTTNet_tcpRecv                           
01010431  MQTTNet_tcpSelect                         
01018a27  MQTTNet_tcpSend                           
0100b061  MQTT_PacketRecv                           
010178e5  MQTT_clCtxRemove                          
01018369  MQTT_clCtxReset                           
01016e0d  MQTT_clCtxTimeoutInsert                   
010181d3  MQTT_clCtxTimeoutUpdate                   
010184c1  MQTT_packetAckWlistAppend                 
01018151  MQTT_packetAckWlistPurge                  
01015e47  MQTT_packetAckWlistRemove                 
01015805  MQTT_packetBufRdRemlen                    
01015e85  MQTT_packetBufTailWrRemlen                
010175f1  MQTT_packetBufWrUtf8                      
0101837f  MQTT_packetFree                           
01018395  MQTT_packetInit                           
0101691d  MQTT_packetPrepFh                         
01017b75  MQTT_packetProcMsgIdAckRx                 
01012435  MQTT_packetProcPubRx                      
01013d69  MQTT_packetPubAppendData                  
01012e99  MQTT_packetPubAppendTopic                 
010184d5  MQTT_packetReset                          
010160ed  MQTT_qos2PubCqCheck                       
0101660d  MQTT_qos2PubCqLogup                       
01017c7d  MQTT_qos2PubCqReset                       
010129c5  MQTT_qos2PubCqUnlog                       
01018897  MQTT_secureConnStructInit                 
01003889  MqttClient                                
01005281  MqttClientCallback                        
0100f909  MqttClientConfig                          
0100c9e1  MqttClientCtxCreate                       
20021dc8  MqttClientExmple_params                   
0100d97d  MqttClientSub                             
01017619  MqttClientThread                          
0100e825  MqttClient_send                           
01008561  MqttClient_start                          
200229d0  Mqtt_ClientCtx                            
0100d59d  Mqtt_IF_Connect                           
01010965  Mqtt_start                                
20021dd4  Msg                                       
01017051  Mutex_create_handle                       
01009d05  Network_IF_ConnectAP                      
01016129  Network_IF_DisconnectFromAP               
010105f1  Network_IF_InitDriver                     
01013509  Network_IF_IpConfigGet                    
010188a5  Network_IF_ResetMCUStateMachine           
010188b1  NwpMaskInterrupt                          
0100da3d  NwpPowerOff                               
01017135  NwpPowerOn                                
01014301  NwpRegisterInterruptHandler               
010188bd  NwpUnMaskInterrupt                        
010147ad  NwpWaitForShutDownInd                     
01018fe8  OpcodeTranslateTable                      
01003cb5  PRCMCC3200MCUInit                         
010183ab  PRCMHIBRegRead                            
010183c1  PRCMHIBRegWrite                           
01014ddd  PRCMLPDSEnter                             
01016645  PRCMLPDSEnterKeepDebugIf                  
01017161  PRCMLPDSIntervalSet                       
01015519  PRCMLPDSRestoreInfoSet                    
01017641  PRCMLPDSWakeupSourceEnable                
01017669  PRCMPeripheralClkDisable                  
01014e25  PRCMPeripheralClkEnable                   
0100f3cd  PRCMPeripheralClockGet                    
01013899  PRCMPeripheralReset                       
01018a2f  PRCMSleepEnter                            
01016165  PRCMSlowClkCtrFastGet                     
010131b5  PRCMSysResetCauseGet                      
010183d7  PTLS_getBuf                               
010183ed  PTLS_setBuf                               
0101816b  PTLS_taskDeleteHook                       
01010f81  PinConfigSet                              
01016acd  PinModeGet                                
010159c9  PinModeSet                                
01018039  PinToPadGet                               
010190f8  PowerCC32XX_config                        
0100f475  PowerCC32XX_configureWakeup               
200216ac  PowerCC32XX_contextSave                   
0101555d  PowerCC32XX_enterLPDS                     
0101718d  PowerCC32XX_getParkState                  
01008dd3  PowerCC32XX_initPolicy                    
20022638  PowerCC32XX_module                        
010147f9  PowerCC32XX_parkPin                       
01016b01  PowerCC32XX_restoreParkState              
01016e71  PowerCC32XX_restoreParkedPin              
010141b9  PowerCC32XX_resumeLPDS                    
01012efd  PowerCC32XX_setParkState                  
01007a79  PowerCC32XX_sleepPolicy                   
010188c9  Power_getConstraintMask                   
010184e9  Power_getDependencyCount                  
010187eb  Power_getTransitionLatency                
010181ed  Power_idleFunc                            
010114c9  Power_init                                
01017691  Power_registerNotify                      
01014e6d  Power_releaseConstraint                   
010138f1  Power_releaseDependency                   
010161a1  Power_setConstraint                       
01011865  Power_setDependency                       
0100aae1  Power_sleep                               
01017c9d  Power_unregisterNotify                    
0101864f  RingBuf_construct                         
01015a09  RingBuf_get                               
010187f9  RingBuf_isFull                            
01017cbd  RingBuf_peek                              
0101537d  RingBuf_put                               
20021e34  RxIrqCnt                                  
0100cd5d  SPICC32XXDMA_close                        
01018a73  SPICC32XXDMA_control                      
010192e0  SPICC32XXDMA_fxnTable                     
01018a9d  SPICC32XXDMA_init                         
01008dd5  SPICC32XXDMA_open                         
01006c85  SPICC32XXDMA_transfer                     
0100c27d  SPICC32XXDMA_transferCancel               
010184fd  SPI_Params_init                           
010189a3  SPI_close                                 
010192f8  SPI_config                                
010195af  SPI_count                                 
01019214  SPI_defaultParams                         
010155a1  SPI_init                                  
01015a49  SPI_open                                  
010189ad  SPI_transfer                              
20022a4c  SecurityParams                            
01018403  SemaphoreP_Params_init                    
01013dbf  SemaphoreP_create                         
010171b9  SemaphoreP_createBinary                   
010188d5  SemaphoreP_delete                         
01016b35  SemaphoreP_pend                           
01017b97  SemaphoreP_post                           
01010685  Semaphore_pend_handle                     
0100d195  SetClientIdNamefromMacAddress             
010189b7  SimpleLinkFatalErrorEventHandler          
010189c1  SimpleLinkGeneralEventHandler             
010188e1  SimpleLinkHttpServerEventHandler          
01013949  SimpleLinkNetAppEventHandler              
010188ed  SimpleLinkNetAppRequestEventHandler       
010189cb  SimpleLinkNetAppRequestMemFreeEventHandler
010189d5  SimpleLinkSockEventHandler                
0100fcd5  SimpleLinkWlanEventHandler                
2002289c  SlNetIfConfigWifi                         
01017cdd  SlNetIfWifi_accept                        
01017eb5  SlNetIfWifi_bind                          
01018661  SlNetIfWifi_close                         
01017ed3  SlNetIfWifi_connect                       
01014845  SlNetIfWifi_getConnectionStatus           
01016953  SlNetIfWifi_getHostByName                 
01016525  SlNetIfWifi_getIPAddr                     
0100ec5d  SlNetIfWifi_getSockOpt                    
01018185  SlNetIfWifi_listen                        
0100bea1  SlNetIfWifi_loadSecObj                    
010171e5  SlNetIfWifi_recv                          
0101667d  SlNetIfWifi_recvFrom                      
01016989  SlNetIfWifi_select                        
01017211  SlNetIfWifi_send                          
010166b5  SlNetIfWifi_sendTo                        
01013395  SlNetIfWifi_setSockOpt                    
010166ed  SlNetIfWifi_socket                        
0101154d  SlNetIfWifi_sockstartSec                  
0100c641  SlNetIf_add                               
0101797d  SlNetIf_getConnectionStatus               
010176b9  SlNetIf_getIfByID                         
01018aa1  SlNetIf_init                              
01014351  SlNetIf_queryIf                           
01010d51  SlNetSock_accept                          
01015a89  SlNetSock_bind                            
01015ec3  SlNetSock_close                           
01014eb5  SlNetSock_connect                         
01010841  SlNetSock_create                          
01014efd  SlNetSock_init                            
0101675d  SlNetSock_listen                          
010139a1  SlNetSock_recv                            
01013215  SlNetSock_recvFrom                        
01018511  SlNetSock_sdsClrAll                       
010176e1  SlNetSock_sdsIsSet                        
01017709  SlNetSock_sdsSet                          
010186fd  SlNetSock_secAttribCreate                 
01017731  SlNetSock_secAttribDelete                 
01015ac9  SlNetSock_secAttribSet                    
01007c29  SlNetSock_select                          
010139f9  SlNetSock_send                            
01013275  SlNetSock_sendTo                          
01014f45  SlNetSock_setOpt                          
010148dd  SlNetSock_startSec                        
010115d1  SlNetUtil_getHostByName                   
01016795  SlNetUtil_htonl                           
01016b69  SlNetUtil_htons                           
01017479  SlNetUtil_inetPton                        
01018aa5  SlNetUtil_init                            
01016795  SlNetUtil_ntohl                           
01016b69  SlNetUtil_ntohs                           
0101870d  SysTickDisable                            
0101871d  SysTickEnable                             
010143a1  TimerCC32XX_allocateTimerResource         
0101655f  TimerCC32XX_close                         
01018a79  TimerCC32XX_control                       
01016b9d  TimerCC32XX_freeTimerResource             
01019294  TimerCC32XX_fxnTable                      
01018205  TimerCC32XX_getCount                      
01009d03  TimerCC32XX_init                          
0100a1c9  TimerCC32XX_open                          
01011eb5  TimerCC32XX_start                         
01013e15  TimerCC32XX_stop                          
010169f5  TimerControlStall                         
01017ef1  TimerDisable                              
01017f0f  TimerEnable                               
01018a37  TimerGetCurrentTimestamp                  
01018673  TimerIntClear                             
0101821d  TimerIntDisable                           
01018235  TimerIntEnable                            
010174a3  TimerLoadSet                              
010174cd  TimerPrescaleSet                          
0101872d  Timer_Params_init                         
01019310  Timer_config                              
010195b0  Timer_count                               
01015629  Timer_init                                
01015b09  Timer_open                                
010189df  Timer_start                               
0101824d  UARTBusy                                  
0100a781  UARTCC32XX_close                          
0100c36f  UARTCC32XX_control                        
01019138  UARTCC32XX_fxnTable                       
0100a1c7  UARTCC32XX_init                           
01005785  UARTCC32XX_open                           
01015b49  UARTCC32XX_read                           
01016a2b  UARTCC32XX_readCancel                     
0100e1a9  UARTCC32XX_readPolling                    
0100d4d1  UARTCC32XX_write                          
01012c9d  UARTCC32XX_writeCancel                    
010130f1  UARTCC32XX_writePolling                   
01018265  UARTIntEnable                             
01019510  UART_config                               
010195b1  UART_count                                
01019188  UART_defaultParams                        
0101566d  UART_init                                 
01015b89  UART_open                                 
010189e9  UART_read                                 
01016bd1  UDMACC32XX_close                          
0101956c  UDMACC32XX_config                         
01015bc9  UDMACC32XX_init                           
01011ae1  UDMACC32XX_open                           
01018a7f  UtilsDelay                                
010195b2  Watchdog_count                            
01019058  _SlActionLookupTable                      
0100b5a1  _SlDeviceEventHandler                     
01014f8d  _SlDeviceFatalErrorEvtHdlr                
01014fd5  _SlDeviceGeneralEvtHdlr                   
0100ce35  _SlDeviceHandleAsync_InitComplete         
01010a85  _SlDeviceHandleAsync_Stop                 
010127ad  _SlDeviceHandleResetRequestInternally     
010188f9  _SlDeviceResetRequestInitCompletedCB      
0101501d  _SlDrvBasicCmd                            
0100b6a5  _SlDrvCmdOp                               
010124a9  _SlDrvCmdSend_noLock                      
01014441  _SlDrvCmdSend_noWait                      
010059fd  _SlDrvDataReadOp                          
010060fd  _SlDrvDataWriteOp                         
0101873d  _SlDrvDispatchHttpServerEvents            
0101874d  _SlDrvDispatchNetAppRequestEvents         
010095a5  _SlDrvDriverCBDeinit                      
01005ed9  _SlDrvDriverCBInit                        
01010ddd  _SlDrvDriverIsApiAllowed                  
01015c09  _SlDrvGlobalObjUnLock                     
0100e8d9  _SlDrvHandleFatalError                    
010179a1  _SlDrvIsApiInProgress                     
0101875d  _SlDrvIsSpawnOwnGlobalLock                
0100f7bd  _SlDrvIsTimeoutExpired                    
01018419  _SlDrvMemZero                             
01009465  _SlDrvMsgReadSpawnCtx                     
0100b8ad  _SlDrvObjGlobalLockWaitForever            
01017f2d  _SlDrvObjLockWaitForever                  
01017f4b  _SlDrvObjUnLock                           
01011009  _SlDrvProtectAsyncRespSetting             
01017759  _SlDrvProtectionObjLockWaitForever        
01017781  _SlDrvProtectionObjUnLock                 
01007711  _SlDrvReleaseAllActivePendingPoolObj      
01004fed  _SlDrvReleasePoolObj                      
01018807  _SlDrvResetCmdExt                         
01014015  _SlDrvRxIrqHandler                        
010179c5  _SlDrvStartMeasureTimeout                 
01017f69  _SlDrvSyncObjSignal                       
0101723d  _SlDrvSyncObjWaitForever                  
01015065  _SlDrvSyncObjWaitTimeout                  
0100cf0d  _SlDrvWaitForInternalAsyncEvent           
01004781  _SlDrvWaitForPoolObj                      
01015c49  _SlFindAndReleasePendingCmd               
010177a9  _SlFlowContSet                            
01018071  _SlInternalIsItSpawnThread                
01013565  _SlInternalSpawn                          
010144e1  _SlInternalSpawnTaskEntry                 
01015c89  _SlInternalSpawnWaitForEvent              
01015cc9  _SlIsEventRegistered                      
01006509  _SlNetAppEventHandler                     
010150ad  _SlNetAppEvtHdlr                          
0100e321  _SlNetAppHandleAsync_DnsGetHostByName     
0100ae35  _SlNetAppHandleAsync_DnsGetHostByService  
0100cfe5  _SlNetAppHandleAsync_NetAppReceive        
0100e3d9  _SlNetAppHandleAsync_PingResponse         
01014531  _SlNetAppHttpServerHdlr                   
01014581  _SlNetAppRequestHdlr                      
010150f5  _SlNetAppRequestMemFree                   
0100ddfd  _SlNetAppSendResponse                     
01019600  _SlNetAppSendResponseCmdCtrl              
01012885  _SlNetAppSendTokenValue                   
01019604  _SlNetAppSendTokenValueCmdCtrl            
0100e98d  _SlNetUtilHandleAsync_Cmd                 
0101513d  _SlSockEvtHdlr                            
01010b15  _SlSocketHandleAsync_Accept               
0100f079  _SlSocketHandleAsync_Close                
0100f125  _SlSocketHandleAsync_Connect              
01002f79  _SlSocketHandleAsync_Select               
01009e39  _SlSocketHandleAsync_StartTLS             
01012a2d  _SlSpawnMsgListGetCount                   
0100b499  _SlSpawnMsgListInsert                     
0100fe15  _SlSpawnMsgListProcess                    
01015185  _SlWlanEvtHdlr                            
20040000  __STACK_END                               
00000400  __STACK_SIZE                              
01019800  __TI_CINIT_Base                           
01019810  __TI_CINIT_Limit                          
010197ec  __TI_Handler_Table_Base                   
010197f8  __TI_Handler_Table_Limit                  
010156b1  __TI_auto_init_nobinit_nopinit            
01012afd  __TI_decompress_lzss                      
01018831  __TI_decompress_none                      
ffffffff  __TI_pprof_out_hndl                       
010012f9  __TI_printfi                              
ffffffff  __TI_prof_data_size                       
ffffffff  __TI_prof_data_start                      
01000841  __TI_scanfi                               
01019648  __TI_static_base__                        
0101891d  __TI_zero_init                            
01011337  __aeabi_cdcmpeq                           
01011337  __aeabi_cdcmple                           
010113bd  __aeabi_cdrcmple                          
01012667  __aeabi_d2f                               
0101525d  __aeabi_d2iz                              
01015739  __aeabi_d2uiz                             
01007563  __aeabi_dadd                              
01009bcd  __aeabi_ddiv                              
0100bca9  __aeabi_dmul                              
01007559  __aeabi_dsub                              
01017bb9  __aeabi_errno_addr                        
010170db  __aeabi_i2d                               
0100cc7f  __aeabi_idiv0                             
0100cc7f  __aeabi_ldiv0                             
010182f5  __aeabi_lmul                              
01011ccf  __aeabi_memclr                            
01011ccf  __aeabi_memclr4                           
01011ccf  __aeabi_memclr8                           
010101c5  __aeabi_memcpy                            
010101c5  __aeabi_memcpy4                           
010101c5  __aeabi_memcpy8                           
01011cd1  __aeabi_memset                            
01011cd1  __aeabi_memset4                           
01011cd1  __aeabi_memset8                           
01017ddd  __aeabi_ui2d                              
010104c7  __aeabi_uldivmod                          
ffffffff  __binit__                                 
ffffffff  __c_args__                                
UNDEFED   __mpu_init                                
2003fc00  __stack                                   
010179e9  _c_int00_noargs                           
0100ea41  _clock_abstime2ticks                      
01018ab8  _ctypes_                                  
0101790b  _pthread_cleanup_pop                      
010177f9  _sl_ExtLib_AwaitedAckLockedSet            
01018815  _sl_ExtLib_AwaitedAckSet                  
01015d09  _sl_ExtLib_ServerAckLockedWait            
UNDEFED   _system_post_cinit                        
01018aa9  _system_pre_init                          
01018aad  abort                                     
01019634  adcCC32XXHWAttrs                          
20021e1c  adcCC32XXObjects                          
01014975  atoi                                      
ffffffff  binit                                     
010135c1  calloc                                    
200213fc  clients                                   
0100f1d1  clock_gettime                             
01018911  copysign                                  
01018911  copysignl                                 
010190a8  correspond                                
01017cfd  createMqttQ                               
01017d1d  createPixyQ                               
01017d3d  createSensorQ                             
01017a31  createStatQ                               
01016c05  dbgOutputLoc                              
010149c1  dbgTerminalError                          
01013b01  eTaskConfirmSleepModeStatus               
01018295  free                                      
0101361d  frexp                                     
0101361d  frexpl                                    
20022a7d  gGlobalLockCntReleased                    
20022a7c  gGlobalLockCntRequested                   
20021000  g_CB                                      
20022988  g_LibsEvents                              
20022a7e  g_SlDeviceStatus                          
20021c54  g_SlInternalSpawnCB                       
200229ac  g_UserEvents                              
20022b00  g_intHandle                               
20022a80  g_pCB                                     
20021df8  g_ucConnectionBSSID                       
20021c7c  g_ucConnectionSSID                        
20022a74  g_ulGatewayIP                             
20022a70  g_ulStaIp                                 
20022a78  g_ulStatus                                
20021e32  g_usConnectIndex                          
20022a00  gpioPinConfigs                            
010194cc  i2cCC32XXHWAttrs                          
20021b64  i2cCC32XXObjects                          
01017d9d  i2cCallback                               
010195ba  inPinTypes                                
01016219  initUart                                  
01014a0d  initVectors                               
01017295  init_I2C                                  
0101707f  init_I2C_transaction                      
01016ca1  init_timerPixy                            
01012519  insertionSort                             
01017fa5  jsmn_init                                 
01004465  jsmn_parse                                
0100d335  ldexp                                     
0100d335  ldexpl                                    
01019160  lookup                                    
010140bd  ltoa                                      
0100b285  main                                      
0100c461  mainThread                                
01015847  malloc                                    
0100ee6d  matchModeByRole                           
010180a9  memccpy                                   
010101c5  memcpy                                    
01011cd7  memset                                    
20021e20  mqtt_queue                                
010195c0  outPinStrengths                           
0101959c  outPinTypes                               
20022a84  pPingCallBackFunc                         
200227a4  parkInfo                                  
20021e24  pixyQ                                     
0100e6b9  pixyRead                                  
0101842f  pixyTimerCallback                         
01011a63  processObject                             
010180e1  pthread_attr_init                         
01017bdb  pthread_attr_setdetachstate               
01017821  pthread_attr_setschedparam                
0101854d  pthread_attr_setstacksize                 
01009a95  pthread_create                            
010136d5  pthread_exit                              
010181b9  pthread_mutex_destroy                     
0101234d  pthread_mutex_init                        
01018561  pthread_mutex_lock                        
010132d5  pthread_mutex_unlock                      
010180fd  pthread_mutexattr_init                    
010172ed  pthread_mutexattr_settype                 
01018575  pthread_self                              
01015ff9  pthread_setcancelstate                    
20022ac8  publish_topic0                            
20022acc  publish_topic1                            
010086d9  pvPortMalloc                              
01016309  pvTaskGetThreadLocalStoragePointer        
01018119  pvTaskIncrementMutexHeldCount             
010170ad  pvTimerGetTimerID                         
2002292c  pxCurrentTCB                              
01014621  pxPortInitialiseStack                     
010191f1  qos                                       
010182dd  read_I2C                                  
01017a79  recieveMsgFromMqtt                        
01012bcd  recieveMsgFromPixyQ                       
01013335  recieveMsgFromSensorQ                     
01017a9d  recieveMsgFromStatQueue                   
01018445  resetISR                                  
01018454  resetVectorAddr                           
01000800  resetVectors                              
0100d335  scalbn                                    
0100d335  scalbnl                                   
0101859d  sem_destroy                               
01017ae5  sem_getvalue                              
01014671  sem_init                                  
01016037  sem_post                                  
010133f3  sem_timedwait                             
01017849  sem_trywait                               
0101830d  sem_wait                                  
01016345  sendI2CMsgToPixyQ                         
01016d71  sendMqttFinishToSensorQ                   
01017319  sendMsgToMqtt                             
01017345  sendMsgToSensorQ                          
01017371  sendMsgToStatQueue                        
01016381  sendTimeMsgToPixyQ                        
01001d49  sensor_fsm                                
20021e28  sensor_queue                              
010078c5  sl_Accept                                 
0100f9ad  sl_Bind                                   
0100b9ad  sl_Close                                  
0100825d  sl_Connect                                
0100f66d  sl_FsClose                                
0100a419  sl_FsOpen                                 
0100baad  sl_FsWrite                                
0100eaf5  sl_GetSockOpt                             
01013bb1  sl_Listen                                 
01008851  sl_NetAppDnsGetHostByName                 
0100dbbd  sl_NetCfgGet                              
01010ef5  sl_Recv                                   
01009081  sl_RecvFrom                               
01013c09  sl_RegisterLibsEventHandler               
01004d39  sl_Select                                 
0100e0ed  sl_Send                                   
0100c189  sl_SendTo                                 
0101175d  sl_SetSockOpt                             
0101201d  sl_Socket                                 
0100abfd  sl_Start                                  
0100931d  sl_StartTLS                               
01007021  sl_Stop                                   
010189f3  sl_Task                                   
010111a1  sl_UnregisterLibsEventHandler             
01005509  sl_WlanConnect                            
01017b09  sl_WlanDisconnect                         
0100e549  sl_WlanGet                                
01014bd5  sl_WlanSetMode                            
010152a5  sleep                                     
01014c21  snprintf                                  
0100c729  sonarRead                                 
01018f00  spiCC32XXDMAHWAttrs                       
20021970  spiCC32XXDMAObjects                       
20021e00  spiCC32XXSDMAscratchBuf                   
0101884d  spi_Close                                 
01012c35  spi_Open                                  
0100feb5  spi_Read                                  
0100ff53  spi_Write                                 
010168e5  sscanf                                    
20021e2c  stat_queue                                
0100a53d  statisticsTask                            
0101845b  strchr                                    
010185b1  strcpy                                    
010185c5  strlen                                    
010173c9  strncmp                                   
01016a97  strncpy                                   
01018325  strrchr                                   
01003435  strtod                                    
01009f6d  strtol                                    
01003435  strtold                                   
010066fd  strtoll                                   
0100b175  strtoul                                   
01008b1d  strtoull                                  
01019274  timerCC32XXHWAttrs                        
20021afc  timerCC32XXObjects                        
0101894d  uDMAErrorStatusClear                      
01018959  uDMAErrorStatusGet                        
200219f8  uartCC32XXObjects0                        
01019558  udmaCC3220SHWAttrs                        
20021e08  udmaCC3220SObject                         
0101957c  ulMaxSyscallInterruptPriority             
0100e275  ulPortGetIPSR                             
01016471  usleep                                    
010152ed  uxListRemove                              
0101759f  uxQueueMessagesWaiting                    
0100d59b  vApplicationMallocFailedHook              
010189fd  vApplicationStackOverflowHook             
01016fc1  vListInitialise                           
010187bd  vListInitialiseItem                       
01012d69  vListInsert                               
010164ad  vListInsertEnd                            
01014c6d  vPortEnterCritical                        
01016ff1  vPortExitCritical                         
01010261  vPortFree                                 
0100e2d9  vPortSVCHandler                           
01013c61  vPortSetupTimerInterrupt                  
0100e2fd  vPortStartFirstTask                       
01018601  vPortSuppressTicksAndSleep                
010123c1  vPortValidateInterruptPriority            
01017b2d  vQueueDelete                              
01013731  vQueueWaitForMessageRestricted            
0101378d  vTaskDelay                                
0100bf99  vTaskDelete                               
01017b51  vTaskInternalSetTimeOutState              
01018965  vTaskMissedYield                          
01016da5  vTaskPlaceOnEventList                     
01015dc9  vTaskPlaceOnEventListRestricted           
0100af4d  vTaskPriorityDisinheritAfterTimeout       
010173f5  vTaskSetApplicationTaskTag                
01016dd9  vTaskSetThreadLocalStoragePointer         
010107ad  vTaskStartScheduler                       
0101577d  vTaskStepTick                             
0100bda5  vTaskSuspend                              
010187cd  vTaskSuspendAll                           
0100cc81  vTaskSwitchContext                        
010186bb  wcslen                                    
20022a88  will_param                                
0100e28d  xPortPendSVHandler                        
0100dc7d  xPortStartScheduler                       
01017421  xPortSysTickHandler                       
01013cb9  xQueueCreateCountingSemaphore             
0101744d  xQueueCreateMutex                         
0101295b  xQueueGenericCreate                       
0100e601  xQueueGenericReset                        
010073a1  xQueueGenericSend                         
0100b7a9  xQueueGenericSendFromISR                  
0100c551  xQueueGiveFromISR                         
010146c1  xQueueGiveMutexRecursive                  
010083e1  xQueueReceive                             
0100d0bd  xQueueReceiveFromISR                      
01006ab1  xQueueSemaphoreTake                       
01013d11  xQueueTakeMutexRecursive                  
0100edbd  xTaskCheckForTimeOut                      
01011d49  xTaskCreate                               
01017871  xTaskGetApplicationTaskTag                
01018615  xTaskGetCurrentTaskHandle                 
01017021  xTaskGetSchedulerState                    
01018629  xTaskGetTickCount                         
01009959  xTaskIncrementTick                        
0100cac1  xTaskPriorityDisinherit                   
0100c811  xTaskPriorityInherit                      
0100f715  xTaskRemoveFromEventList                  
0100ad19  xTaskResumeAll                            
010164e9  xTimerCreate                              
01014165  xTimerCreateTimerTask                     
010117e1  xTimerGenericCommand                      


GLOBAL SYMBOLS: SORTED BY Symbol Address 

address   name                                      
-------   ----                                      
00000400  __STACK_SIZE                              
01000800  resetVectors                              
01000841  __TI_scanfi                               
010012f9  __TI_printfi                              
01001d47  Board_initHook                            
01001d49  sensor_fsm                                
01002f79  _SlSocketHandleAsync_Select               
01003435  strtod                                    
01003435  strtold                                   
01003889  MqttClient                                
01003cb5  PRCMCC3200MCUInit                         
01004465  jsmn_parse                                
01004781  _SlDrvWaitForPoolObj                      
01004d39  sl_Select                                 
01004fed  _SlDrvReleasePoolObj                      
01005281  MqttClientCallback                        
01005509  sl_WlanConnect                            
01005785  UARTCC32XX_open                           
010059fd  _SlDrvDataReadOp                          
01005ed9  _SlDrvDriverCBInit                        
010060fd  _SlDrvDataWriteOp                         
01006509  _SlNetAppEventHandler                     
010066fb  I2CCC32XX_init                            
010066fd  strtoll                                   
010068d9  GPIO_setConfig                            
01006ab1  xQueueSemaphoreTake                       
01006c85  SPICC32XXDMA_transfer                     
01007021  sl_Stop                                   
010073a1  xQueueGenericSend                         
01007559  __aeabi_dsub                              
01007563  __aeabi_dadd                              
01007711  _SlDrvReleaseAllActivePendingPoolObj      
010078c5  sl_Accept                                 
01007a79  PowerCC32XX_sleepPolicy                   
01007c29  SlNetSock_select                          
0100825d  sl_Connect                                
010083e1  xQueueReceive                             
01008561  MqttClient_start                          
010086d9  pvPortMalloc                              
01008851  sl_NetAppDnsGetHostByName                 
01008b1d  strtoull                                  
01008dd3  PowerCC32XX_initPolicy                    
01008dd5  SPICC32XXDMA_open                         
01008f2d  MQTTClient_connect                        
01009081  sl_RecvFrom                               
0100931d  sl_StartTLS                               
01009465  _SlDrvMsgReadSpawnCtx                     
010095a5  _SlDrvDriverCBDeinit                      
01009959  xTaskIncrementTick                        
01009a95  pthread_create                            
01009bcd  __aeabi_ddiv                              
01009d03  TimerCC32XX_init                          
01009d05  Network_IF_ConnectAP                      
01009e39  _SlSocketHandleAsync_StartTLS             
01009f6d  strtol                                    
0100a1c7  UARTCC32XX_init                           
0100a1c9  TimerCC32XX_open                          
0100a419  sl_FsOpen                                 
0100a53d  statisticsTask                            
0100a781  UARTCC32XX_close                          
0100aae1  Power_sleep                               
0100abfd  sl_Start                                  
0100ad19  xTaskResumeAll                            
0100ae35  _SlNetAppHandleAsync_DnsGetHostByService  
0100af4d  vTaskPriorityDisinheritAfterTimeout       
0100b061  MQTT_PacketRecv                           
0100b175  strtoul                                   
0100b285  main                                      
0100b499  _SlSpawnMsgListInsert                     
0100b5a1  _SlDeviceEventHandler                     
0100b6a5  _SlDrvCmdOp                               
0100b7a9  xQueueGenericSendFromISR                  
0100b8ad  _SlDrvObjGlobalLockWaitForever            
0100b9ad  sl_Close                                  
0100baad  sl_FsWrite                                
0100bbad  I2CCC32XX_open                            
0100bca9  __aeabi_dmul                              
0100bda5  vTaskSuspend                              
0100bea1  SlNetIfWifi_loadSecObj                    
0100bf99  vTaskDelete                               
0100c091  MQTTNet_commOpen                          
0100c189  sl_SendTo                                 
0100c27d  SPICC32XXDMA_transferCancel               
0100c36f  UARTCC32XX_control                        
0100c461  mainThread                                
0100c551  xQueueGiveFromISR                         
0100c641  SlNetIf_add                               
0100c729  sonarRead                                 
0100c811  xTaskPriorityInherit                      
0100c9e1  MqttClientCtxCreate                       
0100cac1  xTaskPriorityDisinherit                   
0100cc7f  __aeabi_idiv0                             
0100cc7f  __aeabi_ldiv0                             
0100cc81  vTaskSwitchContext                        
0100cd5d  SPICC32XXDMA_close                        
0100ce35  _SlDeviceHandleAsync_InitComplete         
0100cf0d  _SlDrvWaitForInternalAsyncEvent           
0100cfe5  _SlNetAppHandleAsync_NetAppReceive        
0100d0bd  xQueueReceiveFromISR                      
0100d195  SetClientIdNamefromMacAddress             
0100d335  ldexp                                     
0100d335  ldexpl                                    
0100d335  scalbn                                    
0100d335  scalbnl                                   
0100d4d1  UARTCC32XX_write                          
0100d59b  vApplicationMallocFailedHook              
0100d59d  Mqtt_IF_Connect                           
0100d7f5  GPIO_init                                 
0100d97d  MqttClientSub                             
0100da3d  NwpPowerOff                               
0100dbbd  sl_NetCfgGet                              
0100dc7d  xPortStartScheduler                       
0100ddfd  _SlNetAppSendResponse                     
0100e0ed  sl_Send                                   
0100e1a9  UARTCC32XX_readPolling                    
0100e275  ulPortGetIPSR                             
0100e28d  xPortPendSVHandler                        
0100e2d9  vPortSVCHandler                           
0100e2fd  vPortStartFirstTask                       
0100e321  _SlNetAppHandleAsync_DnsGetHostByName     
0100e3d9  _SlNetAppHandleAsync_PingResponse         
0100e549  sl_WlanGet                                
0100e601  xQueueGenericReset                        
0100e6b9  pixyRead                                  
0100e825  MqttClient_send                           
0100e8d9  _SlDrvHandleFatalError                    
0100e98d  _SlNetUtilHandleAsync_Cmd                 
0100ea41  _clock_abstime2ticks                      
0100eaf5  sl_GetSockOpt                             
0100ec5d  SlNetIfWifi_getSockOpt                    
0100edbd  xTaskCheckForTimeOut                      
0100ee6d  matchModeByRole                           
0100f079  _SlSocketHandleAsync_Close                
0100f125  _SlSocketHandleAsync_Connect              
0100f1d1  clock_gettime                             
0100f27d  IntDisable                                
0100f325  IntEnable                                 
0100f3cd  PRCMPeripheralClockGet                    
0100f475  PowerCC32XX_configureWakeup               
0100f66d  sl_FsClose                                
0100f715  xTaskRemoveFromEventList                  
0100f7bd  _SlDrvIsTimeoutExpired                    
0100f865  MQTTClient_create                         
0100f909  MqttClientConfig                          
0100f9ad  sl_Bind                                   
0100fb95  ClockP_create                             
0100fcd5  SimpleLinkWlanEventHandler                
0100fe15  _SlSpawnMsgListProcess                    
0100feb5  spi_Read                                  
0100ff53  spi_Write                                 
0100fff1  MQTTClientCore_initLib                    
0101008d  MQTTClientCore_sendPubMsg                 
010101c5  __aeabi_memcpy                            
010101c5  __aeabi_memcpy4                           
010101c5  __aeabi_memcpy8                           
010101c5  memcpy                                    
01010261  vPortFree                                 
01010431  MQTTNet_tcpSelect                         
010104c7  __aeabi_uldivmod                          
0101055d  ADCCC32XX_open                            
010105f1  Network_IF_InitDriver                     
01010685  Semaphore_pend_handle                     
010107ad  vTaskStartScheduler                       
01010841  SlNetSock_create                          
010108d3  I2CCC32XX_transfer                        
01010965  Mqtt_start                                
01010a85  _SlDeviceHandleAsync_Stop                 
01010b15  _SlSocketHandleAsync_Accept               
01010cc5  MQTTClientCore_createCtx                  
01010d51  SlNetSock_accept                          
01010ddd  _SlDrvDriverIsApiAllowed                  
01010ef5  sl_Recv                                   
01010f81  PinConfigSet                              
01011009  _SlDrvProtectAsyncRespSetting             
010111a1  sl_UnregisterLibsEventHandler             
01011337  __aeabi_cdcmpeq                           
01011337  __aeabi_cdcmple                           
010113bd  __aeabi_cdrcmple                          
01011445  I2CCC32XX_close                           
010114c9  Power_init                                
0101154d  SlNetIfWifi_sockstartSec                  
010115d1  SlNetUtil_getHostByName                   
0101175d  sl_SetSockOpt                             
010117e1  xTimerGenericCommand                      
01011865  Power_setDependency                       
010119e5  I2CCC32XX_cancel                          
01011a63  processObject                             
01011ae1  UDMACC32XX_open                           
01011ccf  __aeabi_memclr                            
01011ccf  __aeabi_memclr4                           
01011ccf  __aeabi_memclr8                           
01011cd1  __aeabi_memset                            
01011cd1  __aeabi_memset4                           
01011cd1  __aeabi_memset8                           
01011cd7  memset                                    
01011d49  xTaskCreate                               
01011dc5  GPIO_hwiIntFxn                            
01011e3d  MQTTNet_recvFrom                          
01011eb5  TimerCC32XX_start                         
0101201d  sl_Socket                                 
01012095  ADCCC32XX_close                           
01012109  MQTTNet_tcpAccept                         
0101234d  pthread_mutex_init                        
010123c1  vPortValidateInterruptPriority            
01012435  MQTT_packetProcPubRx                      
010124a9  _SlDrvCmdSend_noLock                      
01012519  insertionSort                             
01012667  __aeabi_d2f                               
010126d5  MQTTClient_run                            
010127ad  _SlDeviceHandleResetRequestInternally     
01012885  _SlNetAppSendTokenValue                   
010128f1  MQTTNet_sendTo                            
0101295b  xQueueGenericCreate                       
010129c5  MQTT_qos2PubCqUnlog                       
01012a2d  _SlSpawnMsgListGetCount                   
01012afd  __TI_decompress_lzss                      
01012bcd  recieveMsgFromPixyQ                       
01012c35  spi_Open                                  
01012c9d  UARTCC32XX_writeCancel                    
01012d69  vListInsert                               
01012dd1  ADCCC32XX_convert                         
01012e35  ClockP_stop                               
01012e99  MQTT_packetPubAppendTopic                 
01012efd  PowerCC32XX_setParkState                  
010130f1  UARTCC32XX_writePolling                   
01013155  HwiP_create                               
010131b5  PRCMSysResetCauseGet                      
01013215  SlNetSock_recvFrom                        
01013275  SlNetSock_sendTo                          
010132d5  pthread_mutex_unlock                      
01013335  recieveMsgFromSensorQ                     
01013395  SlNetIfWifi_setSockOpt                    
010133f3  sem_timedwait                             
01013451  GPIO_setCallback                          
010134ad  MQTTNet_tcpListen                         
01013509  Network_IF_IpConfigGet                    
01013565  _SlInternalSpawn                          
010135c1  calloc                                    
0101361d  frexp                                     
0101361d  frexpl                                    
010136d5  pthread_exit                              
01013731  vQueueWaitForMessageRestricted            
0101378d  vTaskDelay                                
010137e9  GPIO_write                                
01013841  IntPendClear                              
01013899  PRCMPeripheralReset                       
010138f1  Power_releaseDependency                   
01013949  SimpleLinkNetAppEventHandler              
010139a1  SlNetSock_recv                            
010139f9  SlNetSock_send                            
01013b01  eTaskConfirmSleepModeStatus               
01013bb1  sl_Listen                                 
01013c09  sl_RegisterLibsEventHandler               
01013c61  vPortSetupTimerInterrupt                  
01013cb9  xQueueCreateCountingSemaphore             
01013d11  xQueueTakeMutexRecursive                  
01013d69  MQTT_packetPubAppendData                  
01013dbf  SemaphoreP_create                         
01013e15  TimerCC32XX_stop                          
01013f19  ClockP_delete                             
01013f6d  IntPrioritySet                            
01013fc1  MQTTClientCore_sendDisconn                
01014015  _SlDrvRxIrqHandler                        
010140bd  ltoa                                      
01014165  xTimerCreateTimerTask                     
010141b9  PowerCC32XX_resumeLPDS                    
01014301  NwpRegisterInterruptHandler               
01014351  SlNetIf_queryIf                           
010143a1  TimerCC32XX_allocateTimerResource         
01014441  _SlDrvCmdSend_noWait                      
010144e1  _SlInternalSpawnTaskEntry                 
01014531  _SlNetAppHttpServerHdlr                   
01014581  _SlNetAppRequestHdlr                      
01014621  pxPortInitialiseStack                     
01014671  sem_init                                  
010146c1  xQueueGiveMutexRecursive                  
01014711  MQTTClientCore_registerWillInfo           
01014761  GPIO_enableInt                            
010147ad  NwpWaitForShutDownInd                     
010147f9  PowerCC32XX_parkPin                       
01014845  SlNetIfWifi_getConnectionStatus           
010148dd  SlNetSock_startSec                        
01014975  atoi                                      
010149c1  dbgTerminalError                          
01014a0d  initVectors                               
01014bd5  sl_WlanSetMode                            
01014c21  snprintf                                  
01014c6d  vPortEnterCritical                        
01014d05  FlashDisable                              
01014d4d  HwiP_dispatch                             
01014d95  MQTTClient_set                            
01014ddd  PRCMLPDSEnter                             
01014e25  PRCMPeripheralClkEnable                   
01014e6d  Power_releaseConstraint                   
01014eb5  SlNetSock_connect                         
01014efd  SlNetSock_init                            
01014f45  SlNetSock_setOpt                          
01014f8d  _SlDeviceFatalErrorEvtHdlr                
01014fd5  _SlDeviceGeneralEvtHdlr                   
0101501d  _SlDrvBasicCmd                            
01015065  _SlDrvSyncObjWaitTimeout                  
010150ad  _SlNetAppEvtHdlr                          
010150f5  _SlNetAppRequestMemFree                   
0101513d  _SlSockEvtHdlr                            
01015185  _SlWlanEvtHdlr                            
0101525d  __aeabi_d2iz                              
010152a5  sleep                                     
010152ed  uxListRemove                              
0101537d  RingBuf_put                               
01015409  ADC_init                                  
0101544d  I2C_init                                  
01015491  MQTTClientCore_run                        
010154d5  MQTTNet_tcpRecv                           
01015519  PRCMLPDSRestoreInfoSet                    
0101555d  PowerCC32XX_enterLPDS                     
010155a1  SPI_init                                  
01015629  Timer_init                                
0101566d  UART_init                                 
010156b1  __TI_auto_init_nobinit_nopinit            
01015739  __aeabi_d2uiz                             
0101577d  vTaskStepTick                             
01015805  MQTT_packetBufRdRemlen                    
01015847  malloc                                    
01015889  ADC_open                                  
01015909  I2C_open                                  
01015949  InitializeAppVariables                    
01015989  MQTTClientCore_registerCtxInfo            
010159c9  PinModeSet                                
01015a09  RingBuf_get                               
01015a49  SPI_open                                  
01015a89  SlNetSock_bind                            
01015ac9  SlNetSock_secAttribSet                    
01015b09  Timer_open                                
01015b49  UARTCC32XX_read                           
01015b89  UART_open                                 
01015bc9  UDMACC32XX_init                           
01015c09  _SlDrvGlobalObjUnLock                     
01015c49  _SlFindAndReleasePendingCmd               
01015c89  _SlInternalSpawnWaitForEvent              
01015cc9  _SlIsEventRegistered                      
01015d09  _sl_ExtLib_ServerAckLockedWait            
01015dc9  vTaskPlaceOnEventListRestricted           
01015e09  ClockP_callbackFxn                        
01015e47  MQTT_packetAckWlistRemove                 
01015e85  MQTT_packetBufTailWrRemlen                
01015ec3  SlNetSock_close                           
01015ff9  pthread_setcancelstate                    
01016037  sem_post                                  
01016075  MQTTClientCore_registerBuffers            
010160b1  MQTTClient_disconnect                     
010160ed  MQTT_qos2PubCqCheck                       
01016129  Network_IF_DisconnectFromAP               
01016165  PRCMSlowClkCtrFastGet                     
010161a1  Power_setConstraint                       
01016219  initUart                                  
01016309  pvTaskGetThreadLocalStoragePointer        
01016345  sendI2CMsgToPixyQ                         
01016381  sendTimeMsgToPixyQ                        
01016471  usleep                                    
010164ad  vListInsertEnd                            
010164e9  xTimerCreate                              
01016525  SlNetIfWifi_getIPAddr                     
0101655f  TimerCC32XX_close                         
010165d5  MQTTClientCore_registerNetSvc             
0101660d  MQTT_qos2PubCqLogup                       
01016645  PRCMLPDSEnterKeepDebugIf                  
0101667d  SlNetIfWifi_recvFrom                      
010166b5  SlNetIfWifi_sendTo                        
010166ed  SlNetIfWifi_socket                        
0101675d  SlNetSock_listen                          
01016795  SlNetUtil_htonl                           
01016795  SlNetUtil_ntohl                           
010168e5  sscanf                                    
0101691d  MQTT_packetPrepFh                         
01016953  SlNetIfWifi_getHostByName                 
01016989  SlNetIfWifi_select                        
010169f5  TimerControlStall                         
01016a2b  UARTCC32XX_readCancel                     
01016a97  strncpy                                   
01016acd  PinModeGet                                
01016b01  PowerCC32XX_restoreParkState              
01016b35  SemaphoreP_pend                           
01016b69  SlNetUtil_htons                           
01016b69  SlNetUtil_ntohs                           
01016b9d  TimerCC32XX_freeTimerResource             
01016bd1  UDMACC32XX_close                          
01016c05  dbgOutputLoc                              
01016ca1  init_timerPixy                            
01016d71  sendMqttFinishToSensorQ                   
01016da5  vTaskPlaceOnEventList                     
01016dd9  vTaskSetThreadLocalStoragePointer         
01016e0d  MQTT_clCtxTimeoutInsert                   
01016e71  PowerCC32XX_restoreParkedPin              
01016fc1  vListInitialise                           
01016ff1  vPortExitCritical                         
01017021  xTaskGetSchedulerState                    
01017051  Mutex_create_handle                       
0101707f  init_I2C_transaction                      
010170ad  pvTimerGetTimerID                         
010170db  __aeabi_i2d                               
01017109  HwiP_disable                              
01017135  NwpPowerOn                                
01017161  PRCMLPDSIntervalSet                       
0101718d  PowerCC32XX_getParkState                  
010171b9  SemaphoreP_createBinary                   
010171e5  SlNetIfWifi_recv                          
01017211  SlNetIfWifi_send                          
0101723d  _SlDrvSyncObjWaitForever                  
01017295  init_I2C                                  
010172ed  pthread_mutexattr_settype                 
01017319  sendMsgToMqtt                             
01017345  sendMsgToSensorQ                          
01017371  sendMsgToStatQueue                        
010173c9  strncmp                                   
010173f5  vTaskSetApplicationTaskTag                
01017421  xPortSysTickHandler                       
0101744d  xQueueCreateMutex                         
01017479  SlNetUtil_inetPton                        
010174a3  TimerLoadSet                              
010174cd  TimerPrescaleSet                          
0101759f  uxQueueMessagesWaiting                    
010175c9  HwiP_inISR                                
010175f1  MQTT_packetBufWrUtf8                      
01017619  MqttClientThread                          
01017641  PRCMLPDSWakeupSourceEnable                
01017669  PRCMPeripheralClkDisable                  
01017691  Power_registerNotify                      
010176b9  SlNetIf_getIfByID                         
010176e1  SlNetSock_sdsIsSet                        
01017709  SlNetSock_sdsSet                          
01017731  SlNetSock_secAttribDelete                 
01017759  _SlDrvProtectionObjLockWaitForever        
01017781  _SlDrvProtectionObjUnLock                 
010177a9  _SlFlowContSet                            
010177f9  _sl_ExtLib_AwaitedAckLockedSet            
01017821  pthread_attr_setschedparam                
01017849  sem_trywait                               
01017871  xTaskGetApplicationTaskTag                
01017899  List_put                                  
010178bf  List_remove                               
010178e5  MQTT_clCtxRemove                          
0101790b  _pthread_cleanup_pop                      
01017959  IntUnregister                             
0101797d  SlNetIf_getConnectionStatus               
010179a1  _SlDrvIsApiInProgress                     
010179c5  _SlDrvStartMeasureTimeout                 
010179e9  _c_int00_noargs                           
01017a31  createStatQ                               
01017a79  recieveMsgFromMqtt                        
01017a9d  recieveMsgFromStatQueue                   
01017ae5  sem_getvalue                              
01017b09  sl_WlanDisconnect                         
01017b2d  vQueueDelete                              
01017b51  vTaskInternalSetTimeOutState              
01017b75  MQTT_packetProcMsgIdAckRx                 
01017b97  SemaphoreP_post                           
01017bb9  __aeabi_errno_addr                        
01017bdb  pthread_attr_setdetachstate               
01017bfd  ADCCC32XX_convertToMicroVolts             
01017c1d  ClockP_getCpuFreq                         
01017c3d  HwiP_restore                              
01017c5d  IntRegister                               
01017c7d  MQTT_qos2PubCqReset                       
01017c9d  Power_unregisterNotify                    
01017cbd  RingBuf_peek                              
01017cdd  SlNetIfWifi_accept                        
01017cfd  createMqttQ                               
01017d1d  createPixyQ                               
01017d3d  createSensorQ                             
01017d9d  i2cCallback                               
01017ddd  __aeabi_ui2d                              
01017e3d  ClockP_start                              
01017e5b  HwiP_Params_init                          
01017e79  MQTTClientCore_alloc                      
01017e97  MQTTClientCore_ctxRun                     
01017eb5  SlNetIfWifi_bind                          
01017ed3  SlNetIfWifi_connect                       
01017ef1  TimerDisable                              
01017f0f  TimerEnable                               
01017f2d  _SlDrvObjLockWaitForever                  
01017f4b  _SlDrvObjUnLock                           
01017f69  _SlDrvSyncObjSignal                       
01017fa5  jsmn_init                                 
0101801d  ClockP_Params_init                        
01018039  PinToPadGet                               
01018071  _SlInternalIsItSpawnThread                
010180a9  memccpy                                   
010180e1  pthread_attr_init                         
010180fd  pthread_mutexattr_init                    
01018119  pvTaskIncrementMutexHeldCount             
01018151  MQTT_packetAckWlistPurge                  
0101816b  PTLS_taskDeleteHook                       
01018185  SlNetIfWifi_listen                        
010181b9  pthread_mutex_destroy                     
010181d3  MQTT_clCtxTimeoutUpdate                   
010181ed  Power_idleFunc                            
01018205  TimerCC32XX_getCount                      
0101821d  TimerIntDisable                           
01018235  TimerIntEnable                            
0101824d  UARTBusy                                  
01018265  UARTIntEnable                             
01018295  free                                      
010182dd  read_I2C                                  
010182f5  __aeabi_lmul                              
0101830d  sem_wait                                  
01018325  strrchr                                   
0101833d  ClockP_setTimeout                         
01018353  MQTTNet_commClose                         
01018369  MQTT_clCtxReset                           
0101837f  MQTT_packetFree                           
01018395  MQTT_packetInit                           
010183ab  PRCMHIBRegRead                            
010183c1  PRCMHIBRegWrite                           
010183d7  PTLS_getBuf                               
010183ed  PTLS_setBuf                               
01018403  SemaphoreP_Params_init                    
01018419  _SlDrvMemZero                             
0101842f  pixyTimerCallback                         
01018445  resetISR                                  
01018454  resetVectorAddr                           
0101845b  strchr                                    
01018471  CPUcpsie                                  
01018485  IntVTableBaseSet                          
01018499  MQTTClient_publish                        
010184ad  MQTTNet_rtcSecs                           
010184c1  MQTT_packetAckWlistAppend                 
010184d5  MQTT_packetReset                          
010184e9  Power_getDependencyCount                  
010184fd  SPI_Params_init                           
01018511  SlNetSock_sdsClrAll                       
0101854d  pthread_attr_setstacksize                 
01018561  pthread_mutex_lock                        
01018575  pthread_self                              
0101859d  sem_destroy                               
010185b1  strcpy                                    
010185c5  strlen                                    
01018601  vPortSuppressTicksAndSleep                
01018615  xTaskGetCurrentTaskHandle                 
01018629  xTaskGetTickCount                         
0101863d  HwiP_delete                               
0101864f  RingBuf_construct                         
01018661  SlNetIfWifi_close                         
01018673  TimerIntClear                             
010186bb  wcslen                                    
010186cd  Board_init                                
010186dd  ClockP_getSystemTickPeriod                
010186ed  I2C_Params_init                           
010186fd  SlNetSock_secAttribCreate                 
0101870d  SysTickDisable                            
0101871d  SysTickEnable                             
0101872d  Timer_Params_init                         
0101873d  _SlDrvDispatchHttpServerEvents            
0101874d  _SlDrvDispatchNetAppRequestEvents         
0101875d  _SlDrvIsSpawnOwnGlobalLock                
010187bd  vListInitialiseItem                       
010187cd  vTaskSuspendAll                           
010187dd  MQTTClient_subscribe                      
010187eb  Power_getTransitionLatency                
010187f9  RingBuf_isFull                            
01018807  _SlDrvResetCmdExt                         
01018815  _sl_ExtLib_AwaitedAckSet                  
01018831  __TI_decompress_none                      
0101884d  spi_Close                                 
0101885b  CPUwfi                                    
01018867  HwiP_clearInterrupt                       
01018873  HwiP_disableInterrupt                     
0101887f  HwiP_enableInterrupt                      
0101888b  MQTTClientCore_sendConnectMsg             
01018897  MQTT_secureConnStructInit                 
010188a5  Network_IF_ResetMCUStateMachine           
010188b1  NwpMaskInterrupt                          
010188bd  NwpUnMaskInterrupt                        
010188c9  Power_getConstraintMask                   
010188d5  SemaphoreP_delete                         
010188e1  SimpleLinkHttpServerEventHandler          
010188ed  SimpleLinkNetAppRequestEventHandler       
010188f9  _SlDeviceResetRequestInitCompletedCB      
01018911  copysign                                  
01018911  copysignl                                 
0101891d  __TI_zero_init                            
0101894d  uDMAErrorStatusClear                      
01018959  uDMAErrorStatusGet                        
01018965  vTaskMissedYield                          
01018971  ADC_Params_init                           
0101897b  ADC_convert                               
01018985  ADC_convertToMicroVolts                   
0101898f  I2C_transfer                              
01018999  IntMasterEnable                           
010189a3  SPI_close                                 
010189ad  SPI_transfer                              
010189b7  SimpleLinkFatalErrorEventHandler          
010189c1  SimpleLinkGeneralEventHandler             
010189cb  SimpleLinkNetAppRequestMemFreeEventHandler
010189d5  SimpleLinkSockEventHandler                
010189df  Timer_start                               
010189e9  UART_read                                 
010189f3  sl_Task                                   
010189fd  vApplicationStackOverflowHook             
01018a07  ADCCC32XX_init                            
01018a0f  ClockP_getSystemTicks                     
01018a1f  MQTTClientCore_sendSubMsg                 
01018a27  MQTTNet_tcpSend                           
01018a2f  PRCMSleepEnter                            
01018a37  TimerGetCurrentTimestamp                  
01018a67  ADCCC32XX_control                         
01018a6d  I2CCC32XX_control                         
01018a73  SPICC32XXDMA_control                      
01018a79  TimerCC32XX_control                       
01018a7f  UtilsDelay                                
01018a9d  SPICC32XXDMA_init                         
01018aa1  SlNetIf_init                              
01018aa5  SlNetUtil_init                            
01018aa9  _system_pre_init                          
01018aad  C$$EXIT                                   
01018aad  abort                                     
01018ab8  _ctypes_                                  
01018f00  spiCC32XXDMAHWAttrs                       
01018fe8  OpcodeTranslateTable                      
01019058  _SlActionLookupTable                      
010190a8  correspond                                
010190f8  PowerCC32XX_config                        
01019138  UARTCC32XX_fxnTable                       
01019160  lookup                                    
01019188  UART_defaultParams                        
010191f1  qos                                       
01019214  SPI_defaultParams                         
01019274  timerCC32XXHWAttrs                        
01019294  TimerCC32XX_fxnTable                      
010192b0  ADCCC32XX_fxnTable                        
010192c8  I2CCC32XX_fxnTable                        
010192e0  SPICC32XXDMA_fxnTable                     
010192f8  SPI_config                                
01019310  Timer_config                              
010193e8  GPIOCC32XX_config                         
0101948c  I2C_defaultParams                         
010194cc  i2cCC32XXHWAttrs                          
010194f8  ADC_config                                
01019504  I2C_config                                
01019510  UART_config                               
01019558  udmaCC3220SHWAttrs                        
01019564  ADC_defaultParams                         
0101956c  UDMACC32XX_config                         
0101957c  ulMaxSyscallInterruptPriority             
0101959c  outPinTypes                               
010195ac  ADC_count                                 
010195ad  CryptoCC32XX_count                        
010195ae  I2C_count                                 
010195af  SPI_count                                 
010195b0  Timer_count                               
010195b1  UART_count                                
010195b2  Watchdog_count                            
010195ba  inPinTypes                                
010195c0  outPinStrengths                           
01019600  _SlNetAppSendResponseCmdCtrl              
01019604  _SlNetAppSendTokenValueCmdCtrl            
01019634  adcCC32XXHWAttrs                          
01019648  __TI_static_base__                        
010197ec  __TI_Handler_Table_Base                   
010197f8  __TI_Handler_Table_Limit                  
01019800  __TI_CINIT_Base                           
01019810  __TI_CINIT_Limit                          
20021000  g_CB                                      
200213fc  clients                                   
200216ac  PowerCC32XX_contextSave                   
20021970  spiCC32XXDMAObjects                       
200219f8  uartCC32XXObjects0                        
20021afc  timerCC32XXObjects                        
20021b64  i2cCC32XXObjects                          
20021c28  GlobalLockObj                             
20021c54  g_SlInternalSpawnCB                       
20021c7c  g_ucConnectionSSID                        
20021dac  MQTTClient_Lib_CB                         
20021dbc  DeviceCB                                  
20021dc8  MqttClientExmple_params                   
20021dd4  Msg                                       
20021df8  g_ucConnectionBSSID                       
20021e00  spiCC32XXSDMAscratchBuf                   
20021e08  udmaCC3220SObject                         
20021e1c  adcCC32XXObjects                          
20021e20  mqtt_queue                                
20021e24  pixyQ                                     
20021e28  sensor_queue                              
20021e2c  stat_queue                                
20021e30  MQTTClient_waitSecs                       
20021e32  g_usConnectIndex                          
20021e34  RxIrqCnt                                  
20021e38  HwiP_dispatchTable                        
20022638  PowerCC32XX_module                        
200227a4  parkInfo                                  
2002289c  SlNetIfConfigWifi                         
2002292c  pxCurrentTCB                              
20022960  MQTTClient_net                            
20022988  g_LibsEvents                              
200229ac  g_UserEvents                              
200229d0  Mqtt_ClientCtx                            
20022a00  gpioPinConfigs                            
20022a3c  ClientId                                  
20022a4c  SecurityParams                            
20022a70  g_ulStaIp                                 
20022a74  g_ulGatewayIP                             
20022a78  g_ulStatus                                
20022a7c  gGlobalLockCntRequested                   
20022a7d  gGlobalLockCntReleased                    
20022a7e  g_SlDeviceStatus                          
20022a80  g_pCB                                     
20022a84  pPingCallBackFunc                         
20022a88  will_param                                
20022aac  MQTTClient_closeContext                   
20022ab0  MQTTClient_clientContext                  
20022ab4  MQTTClient_multiSrvConn                   
20022ab8  MQTTClient_clientCfg                      
20022ac8  publish_topic0                            
20022acc  publish_topic1                            
20022af0  MQTTClient_connectCfg                     
20022b00  g_intHandle                               
2003fc00  __stack                                   
20040000  __STACK_END                               
ffffffff  __TI_pprof_out_hndl                       
ffffffff  __TI_prof_data_size                       
ffffffff  __TI_prof_data_start                      
ffffffff  __binit__                                 
ffffffff  __c_args__                                
ffffffff  binit                                     
UNDEFED   __mpu_init                                
UNDEFED   _system_post_cinit                        

[725 symbols]
